
applet/testshift.elf:     file format elf32-avr


Disassembly of section .text:

00000000 <__vectors>:
       0:	0c 94 35 00 	jmp	0x6a	; 0x6a <__ctors_end>
       4:	0c 94 5d 00 	jmp	0xba	; 0xba <__bad_interrupt>
       8:	0c 94 5d 00 	jmp	0xba	; 0xba <__bad_interrupt>
       c:	0c 94 5d 00 	jmp	0xba	; 0xba <__bad_interrupt>
      10:	0c 94 5d 00 	jmp	0xba	; 0xba <__bad_interrupt>
      14:	0c 94 5d 00 	jmp	0xba	; 0xba <__bad_interrupt>
      18:	0c 94 5d 00 	jmp	0xba	; 0xba <__bad_interrupt>
      1c:	0c 94 5d 00 	jmp	0xba	; 0xba <__bad_interrupt>
      20:	0c 94 5d 00 	jmp	0xba	; 0xba <__bad_interrupt>
      24:	0c 94 5d 00 	jmp	0xba	; 0xba <__bad_interrupt>
      28:	0c 94 5d 00 	jmp	0xba	; 0xba <__bad_interrupt>
      2c:	0c 94 5d 00 	jmp	0xba	; 0xba <__bad_interrupt>
      30:	0c 94 5d 00 	jmp	0xba	; 0xba <__bad_interrupt>
      34:	0c 94 5d 00 	jmp	0xba	; 0xba <__bad_interrupt>
      38:	0c 94 5d 00 	jmp	0xba	; 0xba <__bad_interrupt>
      3c:	0c 94 5d 00 	jmp	0xba	; 0xba <__bad_interrupt>
      40:	0c 94 a8 00 	jmp	0x150	; 0x150 <__vector_16>
      44:	0c 94 5d 00 	jmp	0xba	; 0xba <__bad_interrupt>
      48:	0c 94 90 01 	jmp	0x320	; 0x320 <__vector_18>
      4c:	0c 94 de 01 	jmp	0x3bc	; 0x3bc <__vector_19>
      50:	0c 94 5d 00 	jmp	0xba	; 0xba <__bad_interrupt>
      54:	0c 94 5d 00 	jmp	0xba	; 0xba <__bad_interrupt>
      58:	0c 94 5d 00 	jmp	0xba	; 0xba <__bad_interrupt>
      5c:	0c 94 5d 00 	jmp	0xba	; 0xba <__bad_interrupt>
      60:	0c 94 5d 00 	jmp	0xba	; 0xba <__bad_interrupt>
      64:	0c 94 5d 00 	jmp	0xba	; 0xba <__bad_interrupt>

00000068 <__ctors_start>:
      68:	c6 04       	cpc	r12, r6

0000006a <__ctors_end>:
      6a:	11 24       	eor	r1, r1
      6c:	1f be       	out	0x3f, r1	; 63
      6e:	cf ef       	ldi	r28, 0xFF	; 255
      70:	d8 e0       	ldi	r29, 0x08	; 8
      72:	de bf       	out	0x3e, r29	; 62
      74:	cd bf       	out	0x3d, r28	; 61

00000076 <__do_copy_data>:
      76:	12 e0       	ldi	r17, 0x02	; 2
      78:	a0 e0       	ldi	r26, 0x00	; 0
      7a:	b1 e0       	ldi	r27, 0x01	; 1
      7c:	ee e7       	ldi	r30, 0x7E	; 126
      7e:	fb e3       	ldi	r31, 0x3B	; 59
      80:	02 c0       	rjmp	.+4      	; 0x86 <.do_copy_data_start>

00000082 <.do_copy_data_loop>:
      82:	05 90       	lpm	r0, Z+
      84:	0d 92       	st	X+, r0

00000086 <.do_copy_data_start>:
      86:	a8 34       	cpi	r26, 0x48	; 72
      88:	b1 07       	cpc	r27, r17
      8a:	d9 f7       	brne	.-10     	; 0x82 <.do_copy_data_loop>

0000008c <__do_clear_bss>:
      8c:	13 e0       	ldi	r17, 0x03	; 3
      8e:	a8 e4       	ldi	r26, 0x48	; 72
      90:	b2 e0       	ldi	r27, 0x02	; 2
      92:	01 c0       	rjmp	.+2      	; 0x96 <.do_clear_bss_start>

00000094 <.do_clear_bss_loop>:
      94:	1d 92       	st	X+, r1

00000096 <.do_clear_bss_start>:
      96:	a4 30       	cpi	r26, 0x04	; 4
      98:	b1 07       	cpc	r27, r17
      9a:	e1 f7       	brne	.-8      	; 0x94 <.do_clear_bss_loop>

0000009c <__do_global_ctors>:
      9c:	10 e0       	ldi	r17, 0x00	; 0
      9e:	ca e6       	ldi	r28, 0x6A	; 106
      a0:	d0 e0       	ldi	r29, 0x00	; 0
      a2:	04 c0       	rjmp	.+8      	; 0xac <.do_global_ctors_start>

000000a4 <.do_global_ctors_loop>:
      a4:	22 97       	sbiw	r28, 0x02	; 2
      a6:	fe 01       	movw	r30, r28
      a8:	0e 94 46 1a 	call	0x348c	; 0x348c <__tablejump__>

000000ac <.do_global_ctors_start>:
      ac:	c8 36       	cpi	r28, 0x68	; 104
      ae:	d1 07       	cpc	r29, r17
      b0:	c9 f7       	brne	.-14     	; 0xa4 <.do_global_ctors_loop>
      b2:	0e 94 99 00 	call	0x132	; 0x132 <main>
      b6:	0c 94 bd 1d 	jmp	0x3b7a	; 0x3b7a <_exit>

000000ba <__bad_interrupt>:
      ba:	0c 94 00 00 	jmp	0	; 0x0 <__vectors>

000000be <__cxa_pure_virtual>:
      be:	08 95       	ret

000000c0 <loop>:
      c0:	0f 93       	push	r16
      c2:	1f 93       	push	r17
      c4:	60 91 00 01 	lds	r22, 0x0100
      c8:	70 91 01 01 	lds	r23, 0x0101
      cc:	0d ed       	ldi	r16, 0xDD	; 221
      ce:	12 e0       	ldi	r17, 0x02	; 2
      d0:	c8 01       	movw	r24, r16
      d2:	4a e0       	ldi	r20, 0x0A	; 10
      d4:	50 e0       	ldi	r21, 0x00	; 0
      d6:	0e 94 4a 07 	call	0xe94	; 0xe94 <_ZN5Print7printlnEii>
      da:	80 91 00 01 	lds	r24, 0x0100
      de:	90 91 01 01 	lds	r25, 0x0101
      e2:	62 e0       	ldi	r22, 0x02	; 2
      e4:	70 e0       	ldi	r23, 0x00	; 0
      e6:	0e 94 c4 19 	call	0x3388	; 0x3388 <__divmodhi4>
      ea:	60 93 48 02 	sts	0x0248, r22
      ee:	70 93 49 02 	sts	0x0249, r23
      f2:	c8 01       	movw	r24, r16
      f4:	4a e0       	ldi	r20, 0x0A	; 10
      f6:	50 e0       	ldi	r21, 0x00	; 0
      f8:	0e 94 4a 07 	call	0xe94	; 0xe94 <_ZN5Print7printlnEii>
      fc:	60 91 00 01 	lds	r22, 0x0100
     100:	70 91 01 01 	lds	r23, 0x0101
     104:	75 95       	asr	r23
     106:	67 95       	ror	r22
     108:	70 93 4b 02 	sts	0x024B, r23
     10c:	60 93 4a 02 	sts	0x024A, r22
     110:	c8 01       	movw	r24, r16
     112:	4a e0       	ldi	r20, 0x0A	; 10
     114:	50 e0       	ldi	r21, 0x00	; 0
     116:	0e 94 4a 07 	call	0xe94	; 0xe94 <_ZN5Print7printlnEii>
     11a:	1f 91       	pop	r17
     11c:	0f 91       	pop	r16
     11e:	08 95       	ret

00000120 <setup>:
     120:	8d ed       	ldi	r24, 0xDD	; 221
     122:	92 e0       	ldi	r25, 0x02	; 2
     124:	40 e0       	ldi	r20, 0x00	; 0
     126:	52 ec       	ldi	r21, 0xC2	; 194
     128:	61 e0       	ldi	r22, 0x01	; 1
     12a:	70 e0       	ldi	r23, 0x00	; 0
     12c:	0e 94 a1 02 	call	0x542	; 0x542 <_ZN14HardwareSerial5beginEm>
     130:	08 95       	ret

00000132 <main>:
     132:	cf 93       	push	r28
     134:	df 93       	push	r29
     136:	0e 94 54 01 	call	0x2a8	; 0x2a8 <init>
     13a:	0e 94 90 00 	call	0x120	; 0x120 <setup>
     13e:	cb ec       	ldi	r28, 0xCB	; 203
     140:	d1 e0       	ldi	r29, 0x01	; 1
     142:	0e 94 60 00 	call	0xc0	; 0xc0 <loop>
     146:	20 97       	sbiw	r28, 0x00	; 0
     148:	e1 f3       	breq	.-8      	; 0x142 <main+0x10>
     14a:	0e 94 cb 01 	call	0x396	; 0x396 <_Z14serialEventRunv>
     14e:	f9 cf       	rjmp	.-14     	; 0x142 <main+0x10>

00000150 <__vector_16>:
     150:	1f 92       	push	r1
     152:	0f 92       	push	r0
     154:	0f b6       	in	r0, 0x3f	; 63
     156:	0f 92       	push	r0
     158:	11 24       	eor	r1, r1
     15a:	2f 93       	push	r18
     15c:	3f 93       	push	r19
     15e:	8f 93       	push	r24
     160:	9f 93       	push	r25
     162:	af 93       	push	r26
     164:	bf 93       	push	r27
     166:	80 91 50 02 	lds	r24, 0x0250
     16a:	90 91 51 02 	lds	r25, 0x0251
     16e:	a0 91 52 02 	lds	r26, 0x0252
     172:	b0 91 53 02 	lds	r27, 0x0253
     176:	30 91 54 02 	lds	r19, 0x0254
     17a:	01 96       	adiw	r24, 0x01	; 1
     17c:	a1 1d       	adc	r26, r1
     17e:	b1 1d       	adc	r27, r1
     180:	23 2f       	mov	r18, r19
     182:	2d 5f       	subi	r18, 0xFD	; 253
     184:	2d 37       	cpi	r18, 0x7D	; 125
     186:	20 f0       	brcs	.+8      	; 0x190 <__vector_16+0x40>
     188:	2d 57       	subi	r18, 0x7D	; 125
     18a:	01 96       	adiw	r24, 0x01	; 1
     18c:	a1 1d       	adc	r26, r1
     18e:	b1 1d       	adc	r27, r1
     190:	20 93 54 02 	sts	0x0254, r18
     194:	80 93 50 02 	sts	0x0250, r24
     198:	90 93 51 02 	sts	0x0251, r25
     19c:	a0 93 52 02 	sts	0x0252, r26
     1a0:	b0 93 53 02 	sts	0x0253, r27
     1a4:	80 91 4c 02 	lds	r24, 0x024C
     1a8:	90 91 4d 02 	lds	r25, 0x024D
     1ac:	a0 91 4e 02 	lds	r26, 0x024E
     1b0:	b0 91 4f 02 	lds	r27, 0x024F
     1b4:	01 96       	adiw	r24, 0x01	; 1
     1b6:	a1 1d       	adc	r26, r1
     1b8:	b1 1d       	adc	r27, r1
     1ba:	80 93 4c 02 	sts	0x024C, r24
     1be:	90 93 4d 02 	sts	0x024D, r25
     1c2:	a0 93 4e 02 	sts	0x024E, r26
     1c6:	b0 93 4f 02 	sts	0x024F, r27
     1ca:	bf 91       	pop	r27
     1cc:	af 91       	pop	r26
     1ce:	9f 91       	pop	r25
     1d0:	8f 91       	pop	r24
     1d2:	3f 91       	pop	r19
     1d4:	2f 91       	pop	r18
     1d6:	0f 90       	pop	r0
     1d8:	0f be       	out	0x3f, r0	; 63
     1da:	0f 90       	pop	r0
     1dc:	1f 90       	pop	r1
     1de:	18 95       	reti

000001e0 <millis>:
     1e0:	8f b7       	in	r24, 0x3f	; 63
     1e2:	f8 94       	cli
     1e4:	20 91 50 02 	lds	r18, 0x0250
     1e8:	30 91 51 02 	lds	r19, 0x0251
     1ec:	40 91 52 02 	lds	r20, 0x0252
     1f0:	50 91 53 02 	lds	r21, 0x0253
     1f4:	8f bf       	out	0x3f, r24	; 63
     1f6:	b9 01       	movw	r22, r18
     1f8:	ca 01       	movw	r24, r20
     1fa:	08 95       	ret

000001fc <micros>:
     1fc:	9f b7       	in	r25, 0x3f	; 63
     1fe:	f8 94       	cli
     200:	20 91 4c 02 	lds	r18, 0x024C
     204:	30 91 4d 02 	lds	r19, 0x024D
     208:	40 91 4e 02 	lds	r20, 0x024E
     20c:	50 91 4f 02 	lds	r21, 0x024F
     210:	86 b5       	in	r24, 0x26	; 38
     212:	a8 9b       	sbis	0x15, 0	; 21
     214:	06 c0       	rjmp	.+12     	; 0x222 <micros+0x26>
     216:	8f 3f       	cpi	r24, 0xFF	; 255
     218:	21 f0       	breq	.+8      	; 0x222 <micros+0x26>
     21a:	2f 5f       	subi	r18, 0xFF	; 255
     21c:	3f 4f       	sbci	r19, 0xFF	; 255
     21e:	4f 4f       	sbci	r20, 0xFF	; 255
     220:	5f 4f       	sbci	r21, 0xFF	; 255
     222:	9f bf       	out	0x3f, r25	; 63
     224:	54 2f       	mov	r21, r20
     226:	43 2f       	mov	r20, r19
     228:	32 2f       	mov	r19, r18
     22a:	22 27       	eor	r18, r18
     22c:	28 0f       	add	r18, r24
     22e:	31 1d       	adc	r19, r1
     230:	41 1d       	adc	r20, r1
     232:	51 1d       	adc	r21, r1
     234:	82 e0       	ldi	r24, 0x02	; 2
     236:	22 0f       	add	r18, r18
     238:	33 1f       	adc	r19, r19
     23a:	44 1f       	adc	r20, r20
     23c:	55 1f       	adc	r21, r21
     23e:	8a 95       	dec	r24
     240:	d1 f7       	brne	.-12     	; 0x236 <micros+0x3a>
     242:	b9 01       	movw	r22, r18
     244:	ca 01       	movw	r24, r20
     246:	08 95       	ret

00000248 <delay>:
     248:	ef 92       	push	r14
     24a:	ff 92       	push	r15
     24c:	0f 93       	push	r16
     24e:	1f 93       	push	r17
     250:	cf 93       	push	r28
     252:	df 93       	push	r29
     254:	7b 01       	movw	r14, r22
     256:	8c 01       	movw	r16, r24
     258:	0e 94 fe 00 	call	0x1fc	; 0x1fc <micros>
     25c:	eb 01       	movw	r28, r22
     25e:	0e c0       	rjmp	.+28     	; 0x27c <delay+0x34>
     260:	0e 94 fe 00 	call	0x1fc	; 0x1fc <micros>
     264:	6c 1b       	sub	r22, r28
     266:	7d 0b       	sbc	r23, r29
     268:	68 5e       	subi	r22, 0xE8	; 232
     26a:	73 40       	sbci	r23, 0x03	; 3
     26c:	c8 f3       	brcs	.-14     	; 0x260 <delay+0x18>
     26e:	08 94       	sec
     270:	e1 08       	sbc	r14, r1
     272:	f1 08       	sbc	r15, r1
     274:	01 09       	sbc	r16, r1
     276:	11 09       	sbc	r17, r1
     278:	c8 51       	subi	r28, 0x18	; 24
     27a:	dc 4f       	sbci	r29, 0xFC	; 252
     27c:	e1 14       	cp	r14, r1
     27e:	f1 04       	cpc	r15, r1
     280:	01 05       	cpc	r16, r1
     282:	11 05       	cpc	r17, r1
     284:	69 f7       	brne	.-38     	; 0x260 <delay+0x18>
     286:	df 91       	pop	r29
     288:	cf 91       	pop	r28
     28a:	1f 91       	pop	r17
     28c:	0f 91       	pop	r16
     28e:	ff 90       	pop	r15
     290:	ef 90       	pop	r14
     292:	08 95       	ret

00000294 <delayMicroseconds>:
     294:	01 97       	sbiw	r24, 0x01	; 1
     296:	39 f0       	breq	.+14     	; 0x2a6 <delayMicroseconds+0x12>
     298:	88 0f       	add	r24, r24
     29a:	99 1f       	adc	r25, r25
     29c:	88 0f       	add	r24, r24
     29e:	99 1f       	adc	r25, r25
     2a0:	02 97       	sbiw	r24, 0x02	; 2
     2a2:	01 97       	sbiw	r24, 0x01	; 1
     2a4:	f1 f7       	brne	.-4      	; 0x2a2 <delayMicroseconds+0xe>
     2a6:	08 95       	ret

000002a8 <init>:
     2a8:	78 94       	sei
     2aa:	84 b5       	in	r24, 0x24	; 36
     2ac:	82 60       	ori	r24, 0x02	; 2
     2ae:	84 bd       	out	0x24, r24	; 36
     2b0:	84 b5       	in	r24, 0x24	; 36
     2b2:	81 60       	ori	r24, 0x01	; 1
     2b4:	84 bd       	out	0x24, r24	; 36
     2b6:	85 b5       	in	r24, 0x25	; 37
     2b8:	82 60       	ori	r24, 0x02	; 2
     2ba:	85 bd       	out	0x25, r24	; 37
     2bc:	85 b5       	in	r24, 0x25	; 37
     2be:	81 60       	ori	r24, 0x01	; 1
     2c0:	85 bd       	out	0x25, r24	; 37
     2c2:	ee e6       	ldi	r30, 0x6E	; 110
     2c4:	f0 e0       	ldi	r31, 0x00	; 0
     2c6:	80 81       	ld	r24, Z
     2c8:	81 60       	ori	r24, 0x01	; 1
     2ca:	80 83       	st	Z, r24
     2cc:	e1 e8       	ldi	r30, 0x81	; 129
     2ce:	f0 e0       	ldi	r31, 0x00	; 0
     2d0:	10 82       	st	Z, r1
     2d2:	80 81       	ld	r24, Z
     2d4:	82 60       	ori	r24, 0x02	; 2
     2d6:	80 83       	st	Z, r24
     2d8:	80 81       	ld	r24, Z
     2da:	81 60       	ori	r24, 0x01	; 1
     2dc:	80 83       	st	Z, r24
     2de:	e0 e8       	ldi	r30, 0x80	; 128
     2e0:	f0 e0       	ldi	r31, 0x00	; 0
     2e2:	80 81       	ld	r24, Z
     2e4:	81 60       	ori	r24, 0x01	; 1
     2e6:	80 83       	st	Z, r24
     2e8:	e1 eb       	ldi	r30, 0xB1	; 177
     2ea:	f0 e0       	ldi	r31, 0x00	; 0
     2ec:	80 81       	ld	r24, Z
     2ee:	84 60       	ori	r24, 0x04	; 4
     2f0:	80 83       	st	Z, r24
     2f2:	e0 eb       	ldi	r30, 0xB0	; 176
     2f4:	f0 e0       	ldi	r31, 0x00	; 0
     2f6:	80 81       	ld	r24, Z
     2f8:	81 60       	ori	r24, 0x01	; 1
     2fa:	80 83       	st	Z, r24
     2fc:	ea e7       	ldi	r30, 0x7A	; 122
     2fe:	f0 e0       	ldi	r31, 0x00	; 0
     300:	80 81       	ld	r24, Z
     302:	84 60       	ori	r24, 0x04	; 4
     304:	80 83       	st	Z, r24
     306:	80 81       	ld	r24, Z
     308:	82 60       	ori	r24, 0x02	; 2
     30a:	80 83       	st	Z, r24
     30c:	80 81       	ld	r24, Z
     30e:	81 60       	ori	r24, 0x01	; 1
     310:	80 83       	st	Z, r24
     312:	80 81       	ld	r24, Z
     314:	80 68       	ori	r24, 0x80	; 128
     316:	80 83       	st	Z, r24
     318:	10 92 c1 00 	sts	0x00C1, r1
     31c:	08 95       	ret

0000031e <_Z11serialEventv>:
     31e:	08 95       	ret

00000320 <__vector_18>:
     320:	1f 92       	push	r1
     322:	0f 92       	push	r0
     324:	0f b6       	in	r0, 0x3f	; 63
     326:	0f 92       	push	r0
     328:	11 24       	eor	r1, r1
     32a:	2f 93       	push	r18
     32c:	3f 93       	push	r19
     32e:	4f 93       	push	r20
     330:	8f 93       	push	r24
     332:	9f 93       	push	r25
     334:	ef 93       	push	r30
     336:	ff 93       	push	r31
     338:	80 91 c0 00 	lds	r24, 0x00C0
     33c:	82 fd       	sbrc	r24, 2
     33e:	1d c0       	rjmp	.+58     	; 0x37a <__vector_18+0x5a>
     340:	40 91 c6 00 	lds	r20, 0x00C6
     344:	20 91 95 02 	lds	r18, 0x0295
     348:	30 91 96 02 	lds	r19, 0x0296
     34c:	2f 5f       	subi	r18, 0xFF	; 255
     34e:	3f 4f       	sbci	r19, 0xFF	; 255
     350:	2f 73       	andi	r18, 0x3F	; 63
     352:	30 70       	andi	r19, 0x00	; 0
     354:	80 91 97 02 	lds	r24, 0x0297
     358:	90 91 98 02 	lds	r25, 0x0298
     35c:	28 17       	cp	r18, r24
     35e:	39 07       	cpc	r19, r25
     360:	71 f0       	breq	.+28     	; 0x37e <__vector_18+0x5e>
     362:	e0 91 95 02 	lds	r30, 0x0295
     366:	f0 91 96 02 	lds	r31, 0x0296
     36a:	eb 5a       	subi	r30, 0xAB	; 171
     36c:	fd 4f       	sbci	r31, 0xFD	; 253
     36e:	40 83       	st	Z, r20
     370:	30 93 96 02 	sts	0x0296, r19
     374:	20 93 95 02 	sts	0x0295, r18
     378:	02 c0       	rjmp	.+4      	; 0x37e <__vector_18+0x5e>
     37a:	80 91 c6 00 	lds	r24, 0x00C6
     37e:	ff 91       	pop	r31
     380:	ef 91       	pop	r30
     382:	9f 91       	pop	r25
     384:	8f 91       	pop	r24
     386:	4f 91       	pop	r20
     388:	3f 91       	pop	r19
     38a:	2f 91       	pop	r18
     38c:	0f 90       	pop	r0
     38e:	0f be       	out	0x3f, r0	; 63
     390:	0f 90       	pop	r0
     392:	1f 90       	pop	r1
     394:	18 95       	reti

00000396 <_Z14serialEventRunv>:
     396:	e0 91 e9 02 	lds	r30, 0x02E9
     39a:	f0 91 ea 02 	lds	r31, 0x02EA
     39e:	e0 5c       	subi	r30, 0xC0	; 192
     3a0:	ff 4f       	sbci	r31, 0xFF	; 255
     3a2:	81 91       	ld	r24, Z+
     3a4:	91 91       	ld	r25, Z+
     3a6:	20 81       	ld	r18, Z
     3a8:	31 81       	ldd	r19, Z+1	; 0x01
     3aa:	82 1b       	sub	r24, r18
     3ac:	93 0b       	sbc	r25, r19
     3ae:	8f 73       	andi	r24, 0x3F	; 63
     3b0:	90 70       	andi	r25, 0x00	; 0
     3b2:	89 2b       	or	r24, r25
     3b4:	11 f0       	breq	.+4      	; 0x3ba <_Z14serialEventRunv+0x24>
     3b6:	0e 94 8f 01 	call	0x31e	; 0x31e <_Z11serialEventv>
     3ba:	08 95       	ret

000003bc <__vector_19>:
     3bc:	1f 92       	push	r1
     3be:	0f 92       	push	r0
     3c0:	0f b6       	in	r0, 0x3f	; 63
     3c2:	0f 92       	push	r0
     3c4:	11 24       	eor	r1, r1
     3c6:	2f 93       	push	r18
     3c8:	3f 93       	push	r19
     3ca:	8f 93       	push	r24
     3cc:	9f 93       	push	r25
     3ce:	ef 93       	push	r30
     3d0:	ff 93       	push	r31
     3d2:	20 91 d9 02 	lds	r18, 0x02D9
     3d6:	30 91 da 02 	lds	r19, 0x02DA
     3da:	80 91 db 02 	lds	r24, 0x02DB
     3de:	90 91 dc 02 	lds	r25, 0x02DC
     3e2:	28 17       	cp	r18, r24
     3e4:	39 07       	cpc	r19, r25
     3e6:	31 f4       	brne	.+12     	; 0x3f4 <__vector_19+0x38>
     3e8:	80 91 c1 00 	lds	r24, 0x00C1
     3ec:	8f 7d       	andi	r24, 0xDF	; 223
     3ee:	80 93 c1 00 	sts	0x00C1, r24
     3f2:	14 c0       	rjmp	.+40     	; 0x41c <__vector_19+0x60>
     3f4:	e0 91 db 02 	lds	r30, 0x02DB
     3f8:	f0 91 dc 02 	lds	r31, 0x02DC
     3fc:	e7 56       	subi	r30, 0x67	; 103
     3fe:	fd 4f       	sbci	r31, 0xFD	; 253
     400:	20 81       	ld	r18, Z
     402:	80 91 db 02 	lds	r24, 0x02DB
     406:	90 91 dc 02 	lds	r25, 0x02DC
     40a:	01 96       	adiw	r24, 0x01	; 1
     40c:	8f 73       	andi	r24, 0x3F	; 63
     40e:	90 70       	andi	r25, 0x00	; 0
     410:	90 93 dc 02 	sts	0x02DC, r25
     414:	80 93 db 02 	sts	0x02DB, r24
     418:	20 93 c6 00 	sts	0x00C6, r18
     41c:	ff 91       	pop	r31
     41e:	ef 91       	pop	r30
     420:	9f 91       	pop	r25
     422:	8f 91       	pop	r24
     424:	3f 91       	pop	r19
     426:	2f 91       	pop	r18
     428:	0f 90       	pop	r0
     42a:	0f be       	out	0x3f, r0	; 63
     42c:	0f 90       	pop	r0
     42e:	1f 90       	pop	r1
     430:	18 95       	reti

00000432 <_ZN14HardwareSerialC2EP11ring_bufferS1_PVhS3_S3_S3_S3_S3_hhhhh>:
     432:	8f 92       	push	r8
     434:	9f 92       	push	r9
     436:	af 92       	push	r10
     438:	bf 92       	push	r11
     43a:	cf 92       	push	r12
     43c:	df 92       	push	r13
     43e:	ef 92       	push	r14
     440:	ff 92       	push	r15
     442:	0f 93       	push	r16
     444:	1f 93       	push	r17
     446:	df 93       	push	r29
     448:	cf 93       	push	r28
     44a:	cd b7       	in	r28, 0x3d	; 61
     44c:	de b7       	in	r29, 0x3e	; 62
     44e:	fc 01       	movw	r30, r24
     450:	13 82       	std	Z+3, r1	; 0x03
     452:	12 82       	std	Z+2, r1	; 0x02
     454:	88 ee       	ldi	r24, 0xE8	; 232
     456:	93 e0       	ldi	r25, 0x03	; 3
     458:	a0 e0       	ldi	r26, 0x00	; 0
     45a:	b0 e0       	ldi	r27, 0x00	; 0
     45c:	84 83       	std	Z+4, r24	; 0x04
     45e:	95 83       	std	Z+5, r25	; 0x05
     460:	a6 83       	std	Z+6, r26	; 0x06
     462:	b7 83       	std	Z+7, r27	; 0x07
     464:	86 e0       	ldi	r24, 0x06	; 6
     466:	91 e0       	ldi	r25, 0x01	; 1
     468:	91 83       	std	Z+1, r25	; 0x01
     46a:	80 83       	st	Z, r24
     46c:	75 87       	std	Z+13, r23	; 0x0d
     46e:	64 87       	std	Z+12, r22	; 0x0c
     470:	57 87       	std	Z+15, r21	; 0x0f
     472:	46 87       	std	Z+14, r20	; 0x0e
     474:	31 8b       	std	Z+17, r19	; 0x11
     476:	20 8b       	std	Z+16, r18	; 0x10
     478:	13 8b       	std	Z+19, r17	; 0x13
     47a:	02 8b       	std	Z+18, r16	; 0x12
     47c:	f5 8a       	std	Z+21, r15	; 0x15
     47e:	e4 8a       	std	Z+20, r14	; 0x14
     480:	d7 8a       	std	Z+23, r13	; 0x17
     482:	c6 8a       	std	Z+22, r12	; 0x16
     484:	b1 8e       	std	Z+25, r11	; 0x19
     486:	a0 8e       	std	Z+24, r10	; 0x18
     488:	93 8e       	std	Z+27, r9	; 0x1b
     48a:	82 8e       	std	Z+26, r8	; 0x1a
     48c:	8f 85       	ldd	r24, Y+15	; 0x0f
     48e:	84 8f       	std	Z+28, r24	; 0x1c
     490:	88 89       	ldd	r24, Y+16	; 0x10
     492:	85 8f       	std	Z+29, r24	; 0x1d
     494:	89 89       	ldd	r24, Y+17	; 0x11
     496:	86 8f       	std	Z+30, r24	; 0x1e
     498:	8a 89       	ldd	r24, Y+18	; 0x12
     49a:	87 8f       	std	Z+31, r24	; 0x1f
     49c:	8b 89       	ldd	r24, Y+19	; 0x13
     49e:	80 a3       	std	Z+32, r24	; 0x20
     4a0:	cf 91       	pop	r28
     4a2:	df 91       	pop	r29
     4a4:	1f 91       	pop	r17
     4a6:	0f 91       	pop	r16
     4a8:	ff 90       	pop	r15
     4aa:	ef 90       	pop	r14
     4ac:	df 90       	pop	r13
     4ae:	cf 90       	pop	r12
     4b0:	bf 90       	pop	r11
     4b2:	af 90       	pop	r10
     4b4:	9f 90       	pop	r9
     4b6:	8f 90       	pop	r8
     4b8:	08 95       	ret

000004ba <_ZN14HardwareSerialC1EP11ring_bufferS1_PVhS3_S3_S3_S3_S3_hhhhh>:
     4ba:	8f 92       	push	r8
     4bc:	9f 92       	push	r9
     4be:	af 92       	push	r10
     4c0:	bf 92       	push	r11
     4c2:	cf 92       	push	r12
     4c4:	df 92       	push	r13
     4c6:	ef 92       	push	r14
     4c8:	ff 92       	push	r15
     4ca:	0f 93       	push	r16
     4cc:	1f 93       	push	r17
     4ce:	df 93       	push	r29
     4d0:	cf 93       	push	r28
     4d2:	cd b7       	in	r28, 0x3d	; 61
     4d4:	de b7       	in	r29, 0x3e	; 62
     4d6:	fc 01       	movw	r30, r24
     4d8:	13 82       	std	Z+3, r1	; 0x03
     4da:	12 82       	std	Z+2, r1	; 0x02
     4dc:	88 ee       	ldi	r24, 0xE8	; 232
     4de:	93 e0       	ldi	r25, 0x03	; 3
     4e0:	a0 e0       	ldi	r26, 0x00	; 0
     4e2:	b0 e0       	ldi	r27, 0x00	; 0
     4e4:	84 83       	std	Z+4, r24	; 0x04
     4e6:	95 83       	std	Z+5, r25	; 0x05
     4e8:	a6 83       	std	Z+6, r26	; 0x06
     4ea:	b7 83       	std	Z+7, r27	; 0x07
     4ec:	86 e0       	ldi	r24, 0x06	; 6
     4ee:	91 e0       	ldi	r25, 0x01	; 1
     4f0:	91 83       	std	Z+1, r25	; 0x01
     4f2:	80 83       	st	Z, r24
     4f4:	75 87       	std	Z+13, r23	; 0x0d
     4f6:	64 87       	std	Z+12, r22	; 0x0c
     4f8:	57 87       	std	Z+15, r21	; 0x0f
     4fa:	46 87       	std	Z+14, r20	; 0x0e
     4fc:	31 8b       	std	Z+17, r19	; 0x11
     4fe:	20 8b       	std	Z+16, r18	; 0x10
     500:	13 8b       	std	Z+19, r17	; 0x13
     502:	02 8b       	std	Z+18, r16	; 0x12
     504:	f5 8a       	std	Z+21, r15	; 0x15
     506:	e4 8a       	std	Z+20, r14	; 0x14
     508:	d7 8a       	std	Z+23, r13	; 0x17
     50a:	c6 8a       	std	Z+22, r12	; 0x16
     50c:	b1 8e       	std	Z+25, r11	; 0x19
     50e:	a0 8e       	std	Z+24, r10	; 0x18
     510:	93 8e       	std	Z+27, r9	; 0x1b
     512:	82 8e       	std	Z+26, r8	; 0x1a
     514:	8f 85       	ldd	r24, Y+15	; 0x0f
     516:	84 8f       	std	Z+28, r24	; 0x1c
     518:	88 89       	ldd	r24, Y+16	; 0x10
     51a:	85 8f       	std	Z+29, r24	; 0x1d
     51c:	89 89       	ldd	r24, Y+17	; 0x11
     51e:	86 8f       	std	Z+30, r24	; 0x1e
     520:	8a 89       	ldd	r24, Y+18	; 0x12
     522:	87 8f       	std	Z+31, r24	; 0x1f
     524:	8b 89       	ldd	r24, Y+19	; 0x13
     526:	80 a3       	std	Z+32, r24	; 0x20
     528:	cf 91       	pop	r28
     52a:	df 91       	pop	r29
     52c:	1f 91       	pop	r17
     52e:	0f 91       	pop	r16
     530:	ff 90       	pop	r15
     532:	ef 90       	pop	r14
     534:	df 90       	pop	r13
     536:	cf 90       	pop	r12
     538:	bf 90       	pop	r11
     53a:	af 90       	pop	r10
     53c:	9f 90       	pop	r9
     53e:	8f 90       	pop	r8
     540:	08 95       	ret

00000542 <_ZN14HardwareSerial5beginEm>:
     542:	af 92       	push	r10
     544:	bf 92       	push	r11
     546:	df 92       	push	r13
     548:	ef 92       	push	r14
     54a:	ff 92       	push	r15
     54c:	0f 93       	push	r16
     54e:	1f 93       	push	r17
     550:	cf 93       	push	r28
     552:	df 93       	push	r29
     554:	ec 01       	movw	r28, r24
     556:	7a 01       	movw	r14, r20
     558:	8b 01       	movw	r16, r22
     55a:	dd 24       	eor	r13, r13
     55c:	40 30       	cpi	r20, 0x00	; 0
     55e:	81 ee       	ldi	r24, 0xE1	; 225
     560:	58 07       	cpc	r21, r24
     562:	80 e0       	ldi	r24, 0x00	; 0
     564:	68 07       	cpc	r22, r24
     566:	80 e0       	ldi	r24, 0x00	; 0
     568:	78 07       	cpc	r23, r24
     56a:	11 f0       	breq	.+4      	; 0x570 <_ZN14HardwareSerial5beginEm+0x2e>
     56c:	dd 24       	eor	r13, r13
     56e:	d3 94       	inc	r13
     570:	91 e0       	ldi	r25, 0x01	; 1
     572:	a9 2e       	mov	r10, r25
     574:	b1 2c       	mov	r11, r1
     576:	ec 89       	ldd	r30, Y+20	; 0x14
     578:	fd 89       	ldd	r31, Y+21	; 0x15
     57a:	dd 20       	and	r13, r13
     57c:	69 f0       	breq	.+26     	; 0x598 <_ZN14HardwareSerial5beginEm+0x56>
     57e:	c5 01       	movw	r24, r10
     580:	08 a0       	ldd	r0, Y+32	; 0x20
     582:	02 c0       	rjmp	.+4      	; 0x588 <_ZN14HardwareSerial5beginEm+0x46>
     584:	88 0f       	add	r24, r24
     586:	99 1f       	adc	r25, r25
     588:	0a 94       	dec	r0
     58a:	e2 f7       	brpl	.-8      	; 0x584 <_ZN14HardwareSerial5beginEm+0x42>
     58c:	80 83       	st	Z, r24
     58e:	60 e0       	ldi	r22, 0x00	; 0
     590:	79 e0       	ldi	r23, 0x09	; 9
     592:	8d e3       	ldi	r24, 0x3D	; 61
     594:	90 e0       	ldi	r25, 0x00	; 0
     596:	05 c0       	rjmp	.+10     	; 0x5a2 <_ZN14HardwareSerial5beginEm+0x60>
     598:	10 82       	st	Z, r1
     59a:	60 e8       	ldi	r22, 0x80	; 128
     59c:	74 e8       	ldi	r23, 0x84	; 132
     59e:	8e e1       	ldi	r24, 0x1E	; 30
     5a0:	90 e0       	ldi	r25, 0x00	; 0
     5a2:	a8 01       	movw	r20, r16
     5a4:	97 01       	movw	r18, r14
     5a6:	0e 94 d7 19 	call	0x33ae	; 0x33ae <__udivmodsi4>
     5aa:	21 50       	subi	r18, 0x01	; 1
     5ac:	30 40       	sbci	r19, 0x00	; 0
     5ae:	40 40       	sbci	r20, 0x00	; 0
     5b0:	50 40       	sbci	r21, 0x00	; 0
     5b2:	56 95       	lsr	r21
     5b4:	47 95       	ror	r20
     5b6:	37 95       	ror	r19
     5b8:	27 95       	ror	r18
     5ba:	80 e1       	ldi	r24, 0x10	; 16
     5bc:	20 30       	cpi	r18, 0x00	; 0
     5be:	38 07       	cpc	r19, r24
     5c0:	20 f0       	brcs	.+8      	; 0x5ca <_ZN14HardwareSerial5beginEm+0x88>
     5c2:	dd 20       	and	r13, r13
     5c4:	11 f0       	breq	.+4      	; 0x5ca <_ZN14HardwareSerial5beginEm+0x88>
     5c6:	dd 24       	eor	r13, r13
     5c8:	d6 cf       	rjmp	.-84     	; 0x576 <_ZN14HardwareSerial5beginEm+0x34>
     5ca:	e8 89       	ldd	r30, Y+16	; 0x10
     5cc:	f9 89       	ldd	r31, Y+17	; 0x11
     5ce:	30 83       	st	Z, r19
     5d0:	ea 89       	ldd	r30, Y+18	; 0x12
     5d2:	fb 89       	ldd	r31, Y+19	; 0x13
     5d4:	20 83       	st	Z, r18
     5d6:	19 a2       	std	Y+33, r1	; 0x21
     5d8:	ee 89       	ldd	r30, Y+22	; 0x16
     5da:	ff 89       	ldd	r31, Y+23	; 0x17
     5dc:	40 81       	ld	r20, Z
     5de:	21 e0       	ldi	r18, 0x01	; 1
     5e0:	30 e0       	ldi	r19, 0x00	; 0
     5e2:	c9 01       	movw	r24, r18
     5e4:	0c 8c       	ldd	r0, Y+28	; 0x1c
     5e6:	02 c0       	rjmp	.+4      	; 0x5ec <_ZN14HardwareSerial5beginEm+0xaa>
     5e8:	88 0f       	add	r24, r24
     5ea:	99 1f       	adc	r25, r25
     5ec:	0a 94       	dec	r0
     5ee:	e2 f7       	brpl	.-8      	; 0x5e8 <_ZN14HardwareSerial5beginEm+0xa6>
     5f0:	48 2b       	or	r20, r24
     5f2:	40 83       	st	Z, r20
     5f4:	ee 89       	ldd	r30, Y+22	; 0x16
     5f6:	ff 89       	ldd	r31, Y+23	; 0x17
     5f8:	40 81       	ld	r20, Z
     5fa:	c9 01       	movw	r24, r18
     5fc:	0d 8c       	ldd	r0, Y+29	; 0x1d
     5fe:	02 c0       	rjmp	.+4      	; 0x604 <_ZN14HardwareSerial5beginEm+0xc2>
     600:	88 0f       	add	r24, r24
     602:	99 1f       	adc	r25, r25
     604:	0a 94       	dec	r0
     606:	e2 f7       	brpl	.-8      	; 0x600 <_ZN14HardwareSerial5beginEm+0xbe>
     608:	48 2b       	or	r20, r24
     60a:	40 83       	st	Z, r20
     60c:	ee 89       	ldd	r30, Y+22	; 0x16
     60e:	ff 89       	ldd	r31, Y+23	; 0x17
     610:	40 81       	ld	r20, Z
     612:	c9 01       	movw	r24, r18
     614:	0e 8c       	ldd	r0, Y+30	; 0x1e
     616:	02 c0       	rjmp	.+4      	; 0x61c <_ZN14HardwareSerial5beginEm+0xda>
     618:	88 0f       	add	r24, r24
     61a:	99 1f       	adc	r25, r25
     61c:	0a 94       	dec	r0
     61e:	e2 f7       	brpl	.-8      	; 0x618 <_ZN14HardwareSerial5beginEm+0xd6>
     620:	48 2b       	or	r20, r24
     622:	40 83       	st	Z, r20
     624:	ee 89       	ldd	r30, Y+22	; 0x16
     626:	ff 89       	ldd	r31, Y+23	; 0x17
     628:	80 81       	ld	r24, Z
     62a:	0f 8c       	ldd	r0, Y+31	; 0x1f
     62c:	02 c0       	rjmp	.+4      	; 0x632 <_ZN14HardwareSerial5beginEm+0xf0>
     62e:	22 0f       	add	r18, r18
     630:	33 1f       	adc	r19, r19
     632:	0a 94       	dec	r0
     634:	e2 f7       	brpl	.-8      	; 0x62e <_ZN14HardwareSerial5beginEm+0xec>
     636:	20 95       	com	r18
     638:	28 23       	and	r18, r24
     63a:	20 83       	st	Z, r18
     63c:	df 91       	pop	r29
     63e:	cf 91       	pop	r28
     640:	1f 91       	pop	r17
     642:	0f 91       	pop	r16
     644:	ff 90       	pop	r15
     646:	ef 90       	pop	r14
     648:	df 90       	pop	r13
     64a:	bf 90       	pop	r11
     64c:	af 90       	pop	r10
     64e:	08 95       	ret

00000650 <_ZN14HardwareSerial5beginEmh>:
     650:	af 92       	push	r10
     652:	bf 92       	push	r11
     654:	cf 92       	push	r12
     656:	df 92       	push	r13
     658:	ef 92       	push	r14
     65a:	ff 92       	push	r15
     65c:	0f 93       	push	r16
     65e:	1f 93       	push	r17
     660:	cf 93       	push	r28
     662:	df 93       	push	r29
     664:	ec 01       	movw	r28, r24
     666:	7a 01       	movw	r14, r20
     668:	8b 01       	movw	r16, r22
     66a:	c2 2e       	mov	r12, r18
     66c:	dd 24       	eor	r13, r13
     66e:	40 30       	cpi	r20, 0x00	; 0
     670:	81 ee       	ldi	r24, 0xE1	; 225
     672:	58 07       	cpc	r21, r24
     674:	80 e0       	ldi	r24, 0x00	; 0
     676:	68 07       	cpc	r22, r24
     678:	80 e0       	ldi	r24, 0x00	; 0
     67a:	78 07       	cpc	r23, r24
     67c:	11 f0       	breq	.+4      	; 0x682 <_ZN14HardwareSerial5beginEmh+0x32>
     67e:	dd 24       	eor	r13, r13
     680:	d3 94       	inc	r13
     682:	71 e0       	ldi	r23, 0x01	; 1
     684:	a7 2e       	mov	r10, r23
     686:	b1 2c       	mov	r11, r1
     688:	ec 89       	ldd	r30, Y+20	; 0x14
     68a:	fd 89       	ldd	r31, Y+21	; 0x15
     68c:	dd 20       	and	r13, r13
     68e:	69 f0       	breq	.+26     	; 0x6aa <_ZN14HardwareSerial5beginEmh+0x5a>
     690:	c5 01       	movw	r24, r10
     692:	08 a0       	ldd	r0, Y+32	; 0x20
     694:	02 c0       	rjmp	.+4      	; 0x69a <_ZN14HardwareSerial5beginEmh+0x4a>
     696:	88 0f       	add	r24, r24
     698:	99 1f       	adc	r25, r25
     69a:	0a 94       	dec	r0
     69c:	e2 f7       	brpl	.-8      	; 0x696 <_ZN14HardwareSerial5beginEmh+0x46>
     69e:	80 83       	st	Z, r24
     6a0:	60 e0       	ldi	r22, 0x00	; 0
     6a2:	79 e0       	ldi	r23, 0x09	; 9
     6a4:	8d e3       	ldi	r24, 0x3D	; 61
     6a6:	90 e0       	ldi	r25, 0x00	; 0
     6a8:	05 c0       	rjmp	.+10     	; 0x6b4 <_ZN14HardwareSerial5beginEmh+0x64>
     6aa:	10 82       	st	Z, r1
     6ac:	60 e8       	ldi	r22, 0x80	; 128
     6ae:	74 e8       	ldi	r23, 0x84	; 132
     6b0:	8e e1       	ldi	r24, 0x1E	; 30
     6b2:	90 e0       	ldi	r25, 0x00	; 0
     6b4:	a8 01       	movw	r20, r16
     6b6:	97 01       	movw	r18, r14
     6b8:	0e 94 d7 19 	call	0x33ae	; 0x33ae <__udivmodsi4>
     6bc:	21 50       	subi	r18, 0x01	; 1
     6be:	30 40       	sbci	r19, 0x00	; 0
     6c0:	40 40       	sbci	r20, 0x00	; 0
     6c2:	50 40       	sbci	r21, 0x00	; 0
     6c4:	56 95       	lsr	r21
     6c6:	47 95       	ror	r20
     6c8:	37 95       	ror	r19
     6ca:	27 95       	ror	r18
     6cc:	80 e1       	ldi	r24, 0x10	; 16
     6ce:	20 30       	cpi	r18, 0x00	; 0
     6d0:	38 07       	cpc	r19, r24
     6d2:	20 f0       	brcs	.+8      	; 0x6dc <_ZN14HardwareSerial5beginEmh+0x8c>
     6d4:	dd 20       	and	r13, r13
     6d6:	11 f0       	breq	.+4      	; 0x6dc <_ZN14HardwareSerial5beginEmh+0x8c>
     6d8:	dd 24       	eor	r13, r13
     6da:	d6 cf       	rjmp	.-84     	; 0x688 <_ZN14HardwareSerial5beginEmh+0x38>
     6dc:	e8 89       	ldd	r30, Y+16	; 0x10
     6de:	f9 89       	ldd	r31, Y+17	; 0x11
     6e0:	30 83       	st	Z, r19
     6e2:	ea 89       	ldd	r30, Y+18	; 0x12
     6e4:	fb 89       	ldd	r31, Y+19	; 0x13
     6e6:	20 83       	st	Z, r18
     6e8:	e8 8d       	ldd	r30, Y+24	; 0x18
     6ea:	f9 8d       	ldd	r31, Y+25	; 0x19
     6ec:	c0 82       	st	Z, r12
     6ee:	ee 89       	ldd	r30, Y+22	; 0x16
     6f0:	ff 89       	ldd	r31, Y+23	; 0x17
     6f2:	40 81       	ld	r20, Z
     6f4:	21 e0       	ldi	r18, 0x01	; 1
     6f6:	30 e0       	ldi	r19, 0x00	; 0
     6f8:	c9 01       	movw	r24, r18
     6fa:	0c 8c       	ldd	r0, Y+28	; 0x1c
     6fc:	02 c0       	rjmp	.+4      	; 0x702 <_ZN14HardwareSerial5beginEmh+0xb2>
     6fe:	88 0f       	add	r24, r24
     700:	99 1f       	adc	r25, r25
     702:	0a 94       	dec	r0
     704:	e2 f7       	brpl	.-8      	; 0x6fe <_ZN14HardwareSerial5beginEmh+0xae>
     706:	48 2b       	or	r20, r24
     708:	40 83       	st	Z, r20
     70a:	ee 89       	ldd	r30, Y+22	; 0x16
     70c:	ff 89       	ldd	r31, Y+23	; 0x17
     70e:	40 81       	ld	r20, Z
     710:	c9 01       	movw	r24, r18
     712:	0d 8c       	ldd	r0, Y+29	; 0x1d
     714:	02 c0       	rjmp	.+4      	; 0x71a <_ZN14HardwareSerial5beginEmh+0xca>
     716:	88 0f       	add	r24, r24
     718:	99 1f       	adc	r25, r25
     71a:	0a 94       	dec	r0
     71c:	e2 f7       	brpl	.-8      	; 0x716 <_ZN14HardwareSerial5beginEmh+0xc6>
     71e:	48 2b       	or	r20, r24
     720:	40 83       	st	Z, r20
     722:	ee 89       	ldd	r30, Y+22	; 0x16
     724:	ff 89       	ldd	r31, Y+23	; 0x17
     726:	40 81       	ld	r20, Z
     728:	c9 01       	movw	r24, r18
     72a:	0e 8c       	ldd	r0, Y+30	; 0x1e
     72c:	02 c0       	rjmp	.+4      	; 0x732 <_ZN14HardwareSerial5beginEmh+0xe2>
     72e:	88 0f       	add	r24, r24
     730:	99 1f       	adc	r25, r25
     732:	0a 94       	dec	r0
     734:	e2 f7       	brpl	.-8      	; 0x72e <_ZN14HardwareSerial5beginEmh+0xde>
     736:	48 2b       	or	r20, r24
     738:	40 83       	st	Z, r20
     73a:	ee 89       	ldd	r30, Y+22	; 0x16
     73c:	ff 89       	ldd	r31, Y+23	; 0x17
     73e:	80 81       	ld	r24, Z
     740:	0f 8c       	ldd	r0, Y+31	; 0x1f
     742:	02 c0       	rjmp	.+4      	; 0x748 <_ZN14HardwareSerial5beginEmh+0xf8>
     744:	22 0f       	add	r18, r18
     746:	33 1f       	adc	r19, r19
     748:	0a 94       	dec	r0
     74a:	e2 f7       	brpl	.-8      	; 0x744 <_ZN14HardwareSerial5beginEmh+0xf4>
     74c:	20 95       	com	r18
     74e:	28 23       	and	r18, r24
     750:	20 83       	st	Z, r18
     752:	df 91       	pop	r29
     754:	cf 91       	pop	r28
     756:	1f 91       	pop	r17
     758:	0f 91       	pop	r16
     75a:	ff 90       	pop	r15
     75c:	ef 90       	pop	r14
     75e:	df 90       	pop	r13
     760:	cf 90       	pop	r12
     762:	bf 90       	pop	r11
     764:	af 90       	pop	r10
     766:	08 95       	ret

00000768 <_ZN14HardwareSerial3endEv>:
     768:	cf 93       	push	r28
     76a:	df 93       	push	r29
     76c:	dc 01       	movw	r26, r24
     76e:	1e 96       	adiw	r26, 0x0e	; 14
     770:	8d 91       	ld	r24, X+
     772:	9c 91       	ld	r25, X
     774:	1f 97       	sbiw	r26, 0x0f	; 15
     776:	ec 01       	movw	r28, r24
     778:	c0 5c       	subi	r28, 0xC0	; 192
     77a:	df 4f       	sbci	r29, 0xFF	; 255
     77c:	fc 01       	movw	r30, r24
     77e:	ee 5b       	subi	r30, 0xBE	; 190
     780:	ff 4f       	sbci	r31, 0xFF	; 255
     782:	28 81       	ld	r18, Y
     784:	39 81       	ldd	r19, Y+1	; 0x01
     786:	80 81       	ld	r24, Z
     788:	91 81       	ldd	r25, Z+1	; 0x01
     78a:	28 17       	cp	r18, r24
     78c:	39 07       	cpc	r19, r25
     78e:	c9 f7       	brne	.-14     	; 0x782 <_ZN14HardwareSerial3endEv+0x1a>
     790:	56 96       	adiw	r26, 0x16	; 22
     792:	ed 91       	ld	r30, X+
     794:	fc 91       	ld	r31, X
     796:	57 97       	sbiw	r26, 0x17	; 23
     798:	40 81       	ld	r20, Z
     79a:	21 e0       	ldi	r18, 0x01	; 1
     79c:	30 e0       	ldi	r19, 0x00	; 0
     79e:	c9 01       	movw	r24, r18
     7a0:	5c 96       	adiw	r26, 0x1c	; 28
     7a2:	0c 90       	ld	r0, X
     7a4:	5c 97       	sbiw	r26, 0x1c	; 28
     7a6:	02 c0       	rjmp	.+4      	; 0x7ac <_ZN14HardwareSerial3endEv+0x44>
     7a8:	88 0f       	add	r24, r24
     7aa:	99 1f       	adc	r25, r25
     7ac:	0a 94       	dec	r0
     7ae:	e2 f7       	brpl	.-8      	; 0x7a8 <_ZN14HardwareSerial3endEv+0x40>
     7b0:	80 95       	com	r24
     7b2:	84 23       	and	r24, r20
     7b4:	80 83       	st	Z, r24
     7b6:	56 96       	adiw	r26, 0x16	; 22
     7b8:	ed 91       	ld	r30, X+
     7ba:	fc 91       	ld	r31, X
     7bc:	57 97       	sbiw	r26, 0x17	; 23
     7be:	40 81       	ld	r20, Z
     7c0:	c9 01       	movw	r24, r18
     7c2:	5d 96       	adiw	r26, 0x1d	; 29
     7c4:	0c 90       	ld	r0, X
     7c6:	5d 97       	sbiw	r26, 0x1d	; 29
     7c8:	02 c0       	rjmp	.+4      	; 0x7ce <_ZN14HardwareSerial3endEv+0x66>
     7ca:	88 0f       	add	r24, r24
     7cc:	99 1f       	adc	r25, r25
     7ce:	0a 94       	dec	r0
     7d0:	e2 f7       	brpl	.-8      	; 0x7ca <_ZN14HardwareSerial3endEv+0x62>
     7d2:	80 95       	com	r24
     7d4:	84 23       	and	r24, r20
     7d6:	80 83       	st	Z, r24
     7d8:	56 96       	adiw	r26, 0x16	; 22
     7da:	ed 91       	ld	r30, X+
     7dc:	fc 91       	ld	r31, X
     7de:	57 97       	sbiw	r26, 0x17	; 23
     7e0:	40 81       	ld	r20, Z
     7e2:	c9 01       	movw	r24, r18
     7e4:	5e 96       	adiw	r26, 0x1e	; 30
     7e6:	0c 90       	ld	r0, X
     7e8:	5e 97       	sbiw	r26, 0x1e	; 30
     7ea:	02 c0       	rjmp	.+4      	; 0x7f0 <_ZN14HardwareSerial3endEv+0x88>
     7ec:	88 0f       	add	r24, r24
     7ee:	99 1f       	adc	r25, r25
     7f0:	0a 94       	dec	r0
     7f2:	e2 f7       	brpl	.-8      	; 0x7ec <_ZN14HardwareSerial3endEv+0x84>
     7f4:	80 95       	com	r24
     7f6:	84 23       	and	r24, r20
     7f8:	80 83       	st	Z, r24
     7fa:	56 96       	adiw	r26, 0x16	; 22
     7fc:	ed 91       	ld	r30, X+
     7fe:	fc 91       	ld	r31, X
     800:	57 97       	sbiw	r26, 0x17	; 23
     802:	80 81       	ld	r24, Z
     804:	5f 96       	adiw	r26, 0x1f	; 31
     806:	0c 90       	ld	r0, X
     808:	5f 97       	sbiw	r26, 0x1f	; 31
     80a:	02 c0       	rjmp	.+4      	; 0x810 <_ZN14HardwareSerial3endEv+0xa8>
     80c:	22 0f       	add	r18, r18
     80e:	33 1f       	adc	r19, r19
     810:	0a 94       	dec	r0
     812:	e2 f7       	brpl	.-8      	; 0x80c <_ZN14HardwareSerial3endEv+0xa4>
     814:	20 95       	com	r18
     816:	28 23       	and	r18, r24
     818:	20 83       	st	Z, r18
     81a:	1c 96       	adiw	r26, 0x0c	; 12
     81c:	ed 91       	ld	r30, X+
     81e:	fc 91       	ld	r31, X
     820:	1d 97       	sbiw	r26, 0x0d	; 13
     822:	ee 5b       	subi	r30, 0xBE	; 190
     824:	ff 4f       	sbci	r31, 0xFF	; 255
     826:	80 81       	ld	r24, Z
     828:	91 81       	ldd	r25, Z+1	; 0x01
     82a:	92 93       	st	-Z, r25
     82c:	82 93       	st	-Z, r24
     82e:	df 91       	pop	r29
     830:	cf 91       	pop	r28
     832:	08 95       	ret

00000834 <_ZN14HardwareSerial9availableEv>:
     834:	dc 01       	movw	r26, r24
     836:	1c 96       	adiw	r26, 0x0c	; 12
     838:	ed 91       	ld	r30, X+
     83a:	fc 91       	ld	r31, X
     83c:	1d 97       	sbiw	r26, 0x0d	; 13
     83e:	e0 5c       	subi	r30, 0xC0	; 192
     840:	ff 4f       	sbci	r31, 0xFF	; 255
     842:	21 91       	ld	r18, Z+
     844:	31 91       	ld	r19, Z+
     846:	80 81       	ld	r24, Z
     848:	91 81       	ldd	r25, Z+1	; 0x01
     84a:	28 1b       	sub	r18, r24
     84c:	39 0b       	sbc	r19, r25
     84e:	2f 73       	andi	r18, 0x3F	; 63
     850:	30 70       	andi	r19, 0x00	; 0
     852:	c9 01       	movw	r24, r18
     854:	08 95       	ret

00000856 <_ZN14HardwareSerial4peekEv>:
     856:	dc 01       	movw	r26, r24
     858:	1c 96       	adiw	r26, 0x0c	; 12
     85a:	ed 91       	ld	r30, X+
     85c:	fc 91       	ld	r31, X
     85e:	1d 97       	sbiw	r26, 0x0d	; 13
     860:	e0 5c       	subi	r30, 0xC0	; 192
     862:	ff 4f       	sbci	r31, 0xFF	; 255
     864:	20 81       	ld	r18, Z
     866:	31 81       	ldd	r19, Z+1	; 0x01
     868:	e0 54       	subi	r30, 0x40	; 64
     86a:	f0 40       	sbci	r31, 0x00	; 0
     86c:	df 01       	movw	r26, r30
     86e:	ae 5b       	subi	r26, 0xBE	; 190
     870:	bf 4f       	sbci	r27, 0xFF	; 255
     872:	8d 91       	ld	r24, X+
     874:	9c 91       	ld	r25, X
     876:	11 97       	sbiw	r26, 0x01	; 1
     878:	28 17       	cp	r18, r24
     87a:	39 07       	cpc	r19, r25
     87c:	19 f4       	brne	.+6      	; 0x884 <_ZN14HardwareSerial4peekEv+0x2e>
     87e:	2f ef       	ldi	r18, 0xFF	; 255
     880:	3f ef       	ldi	r19, 0xFF	; 255
     882:	07 c0       	rjmp	.+14     	; 0x892 <_ZN14HardwareSerial4peekEv+0x3c>
     884:	8d 91       	ld	r24, X+
     886:	9c 91       	ld	r25, X
     888:	e8 0f       	add	r30, r24
     88a:	f9 1f       	adc	r31, r25
     88c:	80 81       	ld	r24, Z
     88e:	28 2f       	mov	r18, r24
     890:	30 e0       	ldi	r19, 0x00	; 0
     892:	c9 01       	movw	r24, r18
     894:	08 95       	ret

00000896 <_ZN14HardwareSerial4readEv>:
     896:	dc 01       	movw	r26, r24
     898:	1c 96       	adiw	r26, 0x0c	; 12
     89a:	ed 91       	ld	r30, X+
     89c:	fc 91       	ld	r31, X
     89e:	1d 97       	sbiw	r26, 0x0d	; 13
     8a0:	e0 5c       	subi	r30, 0xC0	; 192
     8a2:	ff 4f       	sbci	r31, 0xFF	; 255
     8a4:	20 81       	ld	r18, Z
     8a6:	31 81       	ldd	r19, Z+1	; 0x01
     8a8:	e0 54       	subi	r30, 0x40	; 64
     8aa:	f0 40       	sbci	r31, 0x00	; 0
     8ac:	df 01       	movw	r26, r30
     8ae:	ae 5b       	subi	r26, 0xBE	; 190
     8b0:	bf 4f       	sbci	r27, 0xFF	; 255
     8b2:	8d 91       	ld	r24, X+
     8b4:	9c 91       	ld	r25, X
     8b6:	11 97       	sbiw	r26, 0x01	; 1
     8b8:	28 17       	cp	r18, r24
     8ba:	39 07       	cpc	r19, r25
     8bc:	19 f4       	brne	.+6      	; 0x8c4 <_ZN14HardwareSerial4readEv+0x2e>
     8be:	2f ef       	ldi	r18, 0xFF	; 255
     8c0:	3f ef       	ldi	r19, 0xFF	; 255
     8c2:	10 c0       	rjmp	.+32     	; 0x8e4 <_ZN14HardwareSerial4readEv+0x4e>
     8c4:	8d 91       	ld	r24, X+
     8c6:	9c 91       	ld	r25, X
     8c8:	11 97       	sbiw	r26, 0x01	; 1
     8ca:	e8 0f       	add	r30, r24
     8cc:	f9 1f       	adc	r31, r25
     8ce:	20 81       	ld	r18, Z
     8d0:	8d 91       	ld	r24, X+
     8d2:	9c 91       	ld	r25, X
     8d4:	11 97       	sbiw	r26, 0x01	; 1
     8d6:	01 96       	adiw	r24, 0x01	; 1
     8d8:	8f 73       	andi	r24, 0x3F	; 63
     8da:	90 70       	andi	r25, 0x00	; 0
     8dc:	11 96       	adiw	r26, 0x01	; 1
     8de:	9c 93       	st	X, r25
     8e0:	8e 93       	st	-X, r24
     8e2:	30 e0       	ldi	r19, 0x00	; 0
     8e4:	c9 01       	movw	r24, r18
     8e6:	08 95       	ret

000008e8 <_ZN14HardwareSerial5flushEv>:
     8e8:	dc 01       	movw	r26, r24
     8ea:	91 96       	adiw	r26, 0x21	; 33
     8ec:	8c 91       	ld	r24, X
     8ee:	91 97       	sbiw	r26, 0x21	; 33
     8f0:	88 23       	and	r24, r24
     8f2:	39 f0       	breq	.+14     	; 0x902 <__stack+0x3>
     8f4:	54 96       	adiw	r26, 0x14	; 20
     8f6:	ed 91       	ld	r30, X+
     8f8:	fc 91       	ld	r31, X
     8fa:	55 97       	sbiw	r26, 0x15	; 21
     8fc:	80 81       	ld	r24, Z
     8fe:	86 ff       	sbrs	r24, 6
     900:	f9 cf       	rjmp	.-14     	; 0x8f4 <_ZN14HardwareSerial5flushEv+0xc>
     902:	91 96       	adiw	r26, 0x21	; 33
     904:	1c 92       	st	X, r1
     906:	08 95       	ret

00000908 <_ZN14HardwareSerial5writeEh>:
     908:	cf 93       	push	r28
     90a:	df 93       	push	r29
     90c:	ec 01       	movw	r28, r24
     90e:	ee 85       	ldd	r30, Y+14	; 0x0e
     910:	ff 85       	ldd	r31, Y+15	; 0x0f
     912:	e0 5c       	subi	r30, 0xC0	; 192
     914:	ff 4f       	sbci	r31, 0xFF	; 255
     916:	20 81       	ld	r18, Z
     918:	31 81       	ldd	r19, Z+1	; 0x01
     91a:	e0 54       	subi	r30, 0x40	; 64
     91c:	f0 40       	sbci	r31, 0x00	; 0
     91e:	2f 5f       	subi	r18, 0xFF	; 255
     920:	3f 4f       	sbci	r19, 0xFF	; 255
     922:	2f 73       	andi	r18, 0x3F	; 63
     924:	30 70       	andi	r19, 0x00	; 0
     926:	df 01       	movw	r26, r30
     928:	ae 5b       	subi	r26, 0xBE	; 190
     92a:	bf 4f       	sbci	r27, 0xFF	; 255
     92c:	8d 91       	ld	r24, X+
     92e:	9c 91       	ld	r25, X
     930:	11 97       	sbiw	r26, 0x01	; 1
     932:	28 17       	cp	r18, r24
     934:	39 07       	cpc	r19, r25
     936:	d1 f3       	breq	.-12     	; 0x92c <_ZN14HardwareSerial5writeEh+0x24>
     938:	e0 5c       	subi	r30, 0xC0	; 192
     93a:	ff 4f       	sbci	r31, 0xFF	; 255
     93c:	80 81       	ld	r24, Z
     93e:	91 81       	ldd	r25, Z+1	; 0x01
     940:	e0 54       	subi	r30, 0x40	; 64
     942:	f0 40       	sbci	r31, 0x00	; 0
     944:	e8 0f       	add	r30, r24
     946:	f9 1f       	adc	r31, r25
     948:	60 83       	st	Z, r22
     94a:	ee 85       	ldd	r30, Y+14	; 0x0e
     94c:	ff 85       	ldd	r31, Y+15	; 0x0f
     94e:	e0 5c       	subi	r30, 0xC0	; 192
     950:	ff 4f       	sbci	r31, 0xFF	; 255
     952:	31 83       	std	Z+1, r19	; 0x01
     954:	20 83       	st	Z, r18
     956:	ee 89       	ldd	r30, Y+22	; 0x16
     958:	ff 89       	ldd	r31, Y+23	; 0x17
     95a:	20 81       	ld	r18, Z
     95c:	81 e0       	ldi	r24, 0x01	; 1
     95e:	90 e0       	ldi	r25, 0x00	; 0
     960:	0f 8c       	ldd	r0, Y+31	; 0x1f
     962:	02 c0       	rjmp	.+4      	; 0x968 <_ZN14HardwareSerial5writeEh+0x60>
     964:	88 0f       	add	r24, r24
     966:	99 1f       	adc	r25, r25
     968:	0a 94       	dec	r0
     96a:	e2 f7       	brpl	.-8      	; 0x964 <_ZN14HardwareSerial5writeEh+0x5c>
     96c:	28 2b       	or	r18, r24
     96e:	20 83       	st	Z, r18
     970:	81 e0       	ldi	r24, 0x01	; 1
     972:	89 a3       	std	Y+33, r24	; 0x21
     974:	ec 89       	ldd	r30, Y+20	; 0x14
     976:	fd 89       	ldd	r31, Y+21	; 0x15
     978:	80 81       	ld	r24, Z
     97a:	80 64       	ori	r24, 0x40	; 64
     97c:	80 83       	st	Z, r24
     97e:	81 e0       	ldi	r24, 0x01	; 1
     980:	90 e0       	ldi	r25, 0x00	; 0
     982:	df 91       	pop	r29
     984:	cf 91       	pop	r28
     986:	08 95       	ret

00000988 <_ZN14HardwareSerialcvbEv>:
     988:	81 e0       	ldi	r24, 0x01	; 1
     98a:	08 95       	ret

0000098c <_GLOBAL__I_rx_buffer>:
     98c:	10 92 e0 02 	sts	0x02E0, r1
     990:	10 92 df 02 	sts	0x02DF, r1
     994:	88 ee       	ldi	r24, 0xE8	; 232
     996:	93 e0       	ldi	r25, 0x03	; 3
     998:	a0 e0       	ldi	r26, 0x00	; 0
     99a:	b0 e0       	ldi	r27, 0x00	; 0
     99c:	80 93 e1 02 	sts	0x02E1, r24
     9a0:	90 93 e2 02 	sts	0x02E2, r25
     9a4:	a0 93 e3 02 	sts	0x02E3, r26
     9a8:	b0 93 e4 02 	sts	0x02E4, r27
     9ac:	86 e0       	ldi	r24, 0x06	; 6
     9ae:	91 e0       	ldi	r25, 0x01	; 1
     9b0:	90 93 de 02 	sts	0x02DE, r25
     9b4:	80 93 dd 02 	sts	0x02DD, r24
     9b8:	85 e5       	ldi	r24, 0x55	; 85
     9ba:	92 e0       	ldi	r25, 0x02	; 2
     9bc:	90 93 ea 02 	sts	0x02EA, r25
     9c0:	80 93 e9 02 	sts	0x02E9, r24
     9c4:	89 e9       	ldi	r24, 0x99	; 153
     9c6:	92 e0       	ldi	r25, 0x02	; 2
     9c8:	90 93 ec 02 	sts	0x02EC, r25
     9cc:	80 93 eb 02 	sts	0x02EB, r24
     9d0:	85 ec       	ldi	r24, 0xC5	; 197
     9d2:	90 e0       	ldi	r25, 0x00	; 0
     9d4:	90 93 ee 02 	sts	0x02EE, r25
     9d8:	80 93 ed 02 	sts	0x02ED, r24
     9dc:	84 ec       	ldi	r24, 0xC4	; 196
     9de:	90 e0       	ldi	r25, 0x00	; 0
     9e0:	90 93 f0 02 	sts	0x02F0, r25
     9e4:	80 93 ef 02 	sts	0x02EF, r24
     9e8:	80 ec       	ldi	r24, 0xC0	; 192
     9ea:	90 e0       	ldi	r25, 0x00	; 0
     9ec:	90 93 f2 02 	sts	0x02F2, r25
     9f0:	80 93 f1 02 	sts	0x02F1, r24
     9f4:	81 ec       	ldi	r24, 0xC1	; 193
     9f6:	90 e0       	ldi	r25, 0x00	; 0
     9f8:	90 93 f4 02 	sts	0x02F4, r25
     9fc:	80 93 f3 02 	sts	0x02F3, r24
     a00:	82 ec       	ldi	r24, 0xC2	; 194
     a02:	90 e0       	ldi	r25, 0x00	; 0
     a04:	90 93 f6 02 	sts	0x02F6, r25
     a08:	80 93 f5 02 	sts	0x02F5, r24
     a0c:	86 ec       	ldi	r24, 0xC6	; 198
     a0e:	90 e0       	ldi	r25, 0x00	; 0
     a10:	90 93 f8 02 	sts	0x02F8, r25
     a14:	80 93 f7 02 	sts	0x02F7, r24
     a18:	84 e0       	ldi	r24, 0x04	; 4
     a1a:	80 93 f9 02 	sts	0x02F9, r24
     a1e:	83 e0       	ldi	r24, 0x03	; 3
     a20:	80 93 fa 02 	sts	0x02FA, r24
     a24:	87 e0       	ldi	r24, 0x07	; 7
     a26:	80 93 fb 02 	sts	0x02FB, r24
     a2a:	85 e0       	ldi	r24, 0x05	; 5
     a2c:	80 93 fc 02 	sts	0x02FC, r24
     a30:	81 e0       	ldi	r24, 0x01	; 1
     a32:	80 93 fd 02 	sts	0x02FD, r24
     a36:	08 95       	ret

00000a38 <_ZN5Print5writeEPKhj>:
     a38:	cf 92       	push	r12
     a3a:	df 92       	push	r13
     a3c:	ef 92       	push	r14
     a3e:	ff 92       	push	r15
     a40:	0f 93       	push	r16
     a42:	1f 93       	push	r17
     a44:	cf 93       	push	r28
     a46:	df 93       	push	r29
     a48:	7c 01       	movw	r14, r24
     a4a:	6b 01       	movw	r12, r22
     a4c:	8a 01       	movw	r16, r20
     a4e:	c0 e0       	ldi	r28, 0x00	; 0
     a50:	d0 e0       	ldi	r29, 0x00	; 0
     a52:	0f c0       	rjmp	.+30     	; 0xa72 <_ZN5Print5writeEPKhj+0x3a>
     a54:	d6 01       	movw	r26, r12
     a56:	6d 91       	ld	r22, X+
     a58:	6d 01       	movw	r12, r26
     a5a:	d7 01       	movw	r26, r14
     a5c:	ed 91       	ld	r30, X+
     a5e:	fc 91       	ld	r31, X
     a60:	01 90       	ld	r0, Z+
     a62:	f0 81       	ld	r31, Z
     a64:	e0 2d       	mov	r30, r0
     a66:	c7 01       	movw	r24, r14
     a68:	09 95       	icall
     a6a:	c8 0f       	add	r28, r24
     a6c:	d9 1f       	adc	r29, r25
     a6e:	01 50       	subi	r16, 0x01	; 1
     a70:	10 40       	sbci	r17, 0x00	; 0
     a72:	01 15       	cp	r16, r1
     a74:	11 05       	cpc	r17, r1
     a76:	71 f7       	brne	.-36     	; 0xa54 <_ZN5Print5writeEPKhj+0x1c>
     a78:	ce 01       	movw	r24, r28
     a7a:	df 91       	pop	r29
     a7c:	cf 91       	pop	r28
     a7e:	1f 91       	pop	r17
     a80:	0f 91       	pop	r16
     a82:	ff 90       	pop	r15
     a84:	ef 90       	pop	r14
     a86:	df 90       	pop	r13
     a88:	cf 90       	pop	r12
     a8a:	08 95       	ret

00000a8c <_ZN5Print5printEPK19__FlashStringHelper>:
     a8c:	ef 92       	push	r14
     a8e:	ff 92       	push	r15
     a90:	0f 93       	push	r16
     a92:	1f 93       	push	r17
     a94:	cf 93       	push	r28
     a96:	df 93       	push	r29
     a98:	7c 01       	movw	r14, r24
     a9a:	8b 01       	movw	r16, r22
     a9c:	c0 e0       	ldi	r28, 0x00	; 0
     a9e:	d0 e0       	ldi	r29, 0x00	; 0
     aa0:	f8 01       	movw	r30, r16
     aa2:	0f 5f       	subi	r16, 0xFF	; 255
     aa4:	1f 4f       	sbci	r17, 0xFF	; 255
     aa6:	64 91       	lpm	r22, Z+
     aa8:	66 23       	and	r22, r22
     aaa:	59 f0       	breq	.+22     	; 0xac2 <_ZN5Print5printEPK19__FlashStringHelper+0x36>
     aac:	d7 01       	movw	r26, r14
     aae:	ed 91       	ld	r30, X+
     ab0:	fc 91       	ld	r31, X
     ab2:	01 90       	ld	r0, Z+
     ab4:	f0 81       	ld	r31, Z
     ab6:	e0 2d       	mov	r30, r0
     ab8:	c7 01       	movw	r24, r14
     aba:	09 95       	icall
     abc:	c8 0f       	add	r28, r24
     abe:	d9 1f       	adc	r29, r25
     ac0:	ef cf       	rjmp	.-34     	; 0xaa0 <_ZN5Print5printEPK19__FlashStringHelper+0x14>
     ac2:	ce 01       	movw	r24, r28
     ac4:	df 91       	pop	r29
     ac6:	cf 91       	pop	r28
     ac8:	1f 91       	pop	r17
     aca:	0f 91       	pop	r16
     acc:	ff 90       	pop	r15
     ace:	ef 90       	pop	r14
     ad0:	08 95       	ret

00000ad2 <_ZN5Print5printEc>:
     ad2:	dc 01       	movw	r26, r24
     ad4:	ed 91       	ld	r30, X+
     ad6:	fc 91       	ld	r31, X
     ad8:	01 90       	ld	r0, Z+
     ada:	f0 81       	ld	r31, Z
     adc:	e0 2d       	mov	r30, r0
     ade:	09 95       	icall
     ae0:	08 95       	ret

00000ae2 <_ZN5Print5printERK9Printable>:
     ae2:	9c 01       	movw	r18, r24
     ae4:	db 01       	movw	r26, r22
     ae6:	ed 91       	ld	r30, X+
     ae8:	fc 91       	ld	r31, X
     aea:	01 90       	ld	r0, Z+
     aec:	f0 81       	ld	r31, Z
     aee:	e0 2d       	mov	r30, r0
     af0:	cb 01       	movw	r24, r22
     af2:	b9 01       	movw	r22, r18
     af4:	09 95       	icall
     af6:	08 95       	ret

00000af8 <_ZN5Print7printlnEv>:
     af8:	ef 92       	push	r14
     afa:	ff 92       	push	r15
     afc:	0f 93       	push	r16
     afe:	1f 93       	push	r17
     b00:	8c 01       	movw	r16, r24
     b02:	dc 01       	movw	r26, r24
     b04:	ed 91       	ld	r30, X+
     b06:	fc 91       	ld	r31, X
     b08:	01 90       	ld	r0, Z+
     b0a:	f0 81       	ld	r31, Z
     b0c:	e0 2d       	mov	r30, r0
     b0e:	6d e0       	ldi	r22, 0x0D	; 13
     b10:	09 95       	icall
     b12:	7c 01       	movw	r14, r24
     b14:	d8 01       	movw	r26, r16
     b16:	ed 91       	ld	r30, X+
     b18:	fc 91       	ld	r31, X
     b1a:	01 90       	ld	r0, Z+
     b1c:	f0 81       	ld	r31, Z
     b1e:	e0 2d       	mov	r30, r0
     b20:	c8 01       	movw	r24, r16
     b22:	6a e0       	ldi	r22, 0x0A	; 10
     b24:	09 95       	icall
     b26:	9c 01       	movw	r18, r24
     b28:	2e 0d       	add	r18, r14
     b2a:	3f 1d       	adc	r19, r15
     b2c:	c9 01       	movw	r24, r18
     b2e:	1f 91       	pop	r17
     b30:	0f 91       	pop	r16
     b32:	ff 90       	pop	r15
     b34:	ef 90       	pop	r14
     b36:	08 95       	ret

00000b38 <_ZN5Print7printlnEPK19__FlashStringHelper>:
     b38:	ef 92       	push	r14
     b3a:	ff 92       	push	r15
     b3c:	0f 93       	push	r16
     b3e:	1f 93       	push	r17
     b40:	7c 01       	movw	r14, r24
     b42:	0e 94 46 05 	call	0xa8c	; 0xa8c <_ZN5Print5printEPK19__FlashStringHelper>
     b46:	8c 01       	movw	r16, r24
     b48:	c7 01       	movw	r24, r14
     b4a:	0e 94 7c 05 	call	0xaf8	; 0xaf8 <_ZN5Print7printlnEv>
     b4e:	9c 01       	movw	r18, r24
     b50:	20 0f       	add	r18, r16
     b52:	31 1f       	adc	r19, r17
     b54:	c9 01       	movw	r24, r18
     b56:	1f 91       	pop	r17
     b58:	0f 91       	pop	r16
     b5a:	ff 90       	pop	r15
     b5c:	ef 90       	pop	r14
     b5e:	08 95       	ret

00000b60 <_ZN5Print7printlnEc>:
     b60:	ef 92       	push	r14
     b62:	ff 92       	push	r15
     b64:	0f 93       	push	r16
     b66:	1f 93       	push	r17
     b68:	7c 01       	movw	r14, r24
     b6a:	dc 01       	movw	r26, r24
     b6c:	ed 91       	ld	r30, X+
     b6e:	fc 91       	ld	r31, X
     b70:	01 90       	ld	r0, Z+
     b72:	f0 81       	ld	r31, Z
     b74:	e0 2d       	mov	r30, r0
     b76:	09 95       	icall
     b78:	8c 01       	movw	r16, r24
     b7a:	c7 01       	movw	r24, r14
     b7c:	0e 94 7c 05 	call	0xaf8	; 0xaf8 <_ZN5Print7printlnEv>
     b80:	08 0f       	add	r16, r24
     b82:	19 1f       	adc	r17, r25
     b84:	c8 01       	movw	r24, r16
     b86:	1f 91       	pop	r17
     b88:	0f 91       	pop	r16
     b8a:	ff 90       	pop	r15
     b8c:	ef 90       	pop	r14
     b8e:	08 95       	ret

00000b90 <_ZN5Print7printlnERK9Printable>:
     b90:	ef 92       	push	r14
     b92:	ff 92       	push	r15
     b94:	0f 93       	push	r16
     b96:	1f 93       	push	r17
     b98:	7c 01       	movw	r14, r24
     b9a:	db 01       	movw	r26, r22
     b9c:	ed 91       	ld	r30, X+
     b9e:	fc 91       	ld	r31, X
     ba0:	01 90       	ld	r0, Z+
     ba2:	f0 81       	ld	r31, Z
     ba4:	e0 2d       	mov	r30, r0
     ba6:	cb 01       	movw	r24, r22
     ba8:	b7 01       	movw	r22, r14
     baa:	09 95       	icall
     bac:	8c 01       	movw	r16, r24
     bae:	c7 01       	movw	r24, r14
     bb0:	0e 94 7c 05 	call	0xaf8	; 0xaf8 <_ZN5Print7printlnEv>
     bb4:	08 0f       	add	r16, r24
     bb6:	19 1f       	adc	r17, r25
     bb8:	c8 01       	movw	r24, r16
     bba:	1f 91       	pop	r17
     bbc:	0f 91       	pop	r16
     bbe:	ff 90       	pop	r15
     bc0:	ef 90       	pop	r14
     bc2:	08 95       	ret

00000bc4 <_ZN5Print5writeEPKc>:
     bc4:	cf 93       	push	r28
     bc6:	df 93       	push	r29
     bc8:	ec 01       	movw	r28, r24
     bca:	61 15       	cp	r22, r1
     bcc:	71 05       	cpc	r23, r1
     bce:	19 f4       	brne	.+6      	; 0xbd6 <_ZN5Print5writeEPKc+0x12>
     bd0:	20 e0       	ldi	r18, 0x00	; 0
     bd2:	30 e0       	ldi	r19, 0x00	; 0
     bd4:	0f c0       	rjmp	.+30     	; 0xbf4 <_ZN5Print5writeEPKc+0x30>
     bd6:	db 01       	movw	r26, r22
     bd8:	0d 90       	ld	r0, X+
     bda:	00 20       	and	r0, r0
     bdc:	e9 f7       	brne	.-6      	; 0xbd8 <_ZN5Print5writeEPKc+0x14>
     bde:	11 97       	sbiw	r26, 0x01	; 1
     be0:	a6 1b       	sub	r26, r22
     be2:	b7 0b       	sbc	r27, r23
     be4:	e8 81       	ld	r30, Y
     be6:	f9 81       	ldd	r31, Y+1	; 0x01
     be8:	02 80       	ldd	r0, Z+2	; 0x02
     bea:	f3 81       	ldd	r31, Z+3	; 0x03
     bec:	e0 2d       	mov	r30, r0
     bee:	ad 01       	movw	r20, r26
     bf0:	09 95       	icall
     bf2:	9c 01       	movw	r18, r24
     bf4:	c9 01       	movw	r24, r18
     bf6:	df 91       	pop	r29
     bf8:	cf 91       	pop	r28
     bfa:	08 95       	ret

00000bfc <_ZN5Print11printNumberEmh>:
     bfc:	4f 92       	push	r4
     bfe:	5f 92       	push	r5
     c00:	7f 92       	push	r7
     c02:	8f 92       	push	r8
     c04:	9f 92       	push	r9
     c06:	af 92       	push	r10
     c08:	bf 92       	push	r11
     c0a:	cf 92       	push	r12
     c0c:	df 92       	push	r13
     c0e:	ef 92       	push	r14
     c10:	ff 92       	push	r15
     c12:	0f 93       	push	r16
     c14:	1f 93       	push	r17
     c16:	df 93       	push	r29
     c18:	cf 93       	push	r28
     c1a:	cd b7       	in	r28, 0x3d	; 61
     c1c:	de b7       	in	r29, 0x3e	; 62
     c1e:	a1 97       	sbiw	r28, 0x21	; 33
     c20:	0f b6       	in	r0, 0x3f	; 63
     c22:	f8 94       	cli
     c24:	de bf       	out	0x3e, r29	; 62
     c26:	0f be       	out	0x3f, r0	; 63
     c28:	cd bf       	out	0x3d, r28	; 61
     c2a:	2c 01       	movw	r4, r24
     c2c:	74 2e       	mov	r7, r20
     c2e:	cb 01       	movw	r24, r22
     c30:	22 30       	cpi	r18, 0x02	; 2
     c32:	08 f4       	brcc	.+2      	; 0xc36 <_ZN5Print11printNumberEmh+0x3a>
     c34:	2a e0       	ldi	r18, 0x0A	; 10
     c36:	19 a2       	std	Y+33, r1	; 0x21
     c38:	31 e2       	ldi	r19, 0x21	; 33
     c3a:	c3 2e       	mov	r12, r19
     c3c:	d1 2c       	mov	r13, r1
     c3e:	cc 0e       	add	r12, r28
     c40:	dd 1e       	adc	r13, r29
     c42:	82 2e       	mov	r8, r18
     c44:	99 24       	eor	r9, r9
     c46:	aa 24       	eor	r10, r10
     c48:	bb 24       	eor	r11, r11
     c4a:	67 2d       	mov	r22, r7
     c4c:	75 2f       	mov	r23, r21
     c4e:	a5 01       	movw	r20, r10
     c50:	94 01       	movw	r18, r8
     c52:	0e 94 d7 19 	call	0x33ae	; 0x33ae <__udivmodsi4>
     c56:	79 01       	movw	r14, r18
     c58:	8a 01       	movw	r16, r20
     c5a:	c8 01       	movw	r24, r16
     c5c:	b7 01       	movw	r22, r14
     c5e:	a5 01       	movw	r20, r10
     c60:	94 01       	movw	r18, r8
     c62:	0e 94 a5 19 	call	0x334a	; 0x334a <__mulsi3>
     c66:	47 2d       	mov	r20, r7
     c68:	46 1b       	sub	r20, r22
     c6a:	08 94       	sec
     c6c:	c1 08       	sbc	r12, r1
     c6e:	d1 08       	sbc	r13, r1
     c70:	4a 30       	cpi	r20, 0x0A	; 10
     c72:	14 f4       	brge	.+4      	; 0xc78 <_ZN5Print11printNumberEmh+0x7c>
     c74:	40 5d       	subi	r20, 0xD0	; 208
     c76:	01 c0       	rjmp	.+2      	; 0xc7a <_ZN5Print11printNumberEmh+0x7e>
     c78:	49 5c       	subi	r20, 0xC9	; 201
     c7a:	f6 01       	movw	r30, r12
     c7c:	40 83       	st	Z, r20
     c7e:	e1 14       	cp	r14, r1
     c80:	f1 04       	cpc	r15, r1
     c82:	01 05       	cpc	r16, r1
     c84:	11 05       	cpc	r17, r1
     c86:	21 f0       	breq	.+8      	; 0xc90 <_ZN5Print11printNumberEmh+0x94>
     c88:	7e 2c       	mov	r7, r14
     c8a:	5f 2d       	mov	r21, r15
     c8c:	c8 01       	movw	r24, r16
     c8e:	dd cf       	rjmp	.-70     	; 0xc4a <_ZN5Print11printNumberEmh+0x4e>
     c90:	c2 01       	movw	r24, r4
     c92:	b6 01       	movw	r22, r12
     c94:	0e 94 e2 05 	call	0xbc4	; 0xbc4 <_ZN5Print5writeEPKc>
     c98:	a1 96       	adiw	r28, 0x21	; 33
     c9a:	0f b6       	in	r0, 0x3f	; 63
     c9c:	f8 94       	cli
     c9e:	de bf       	out	0x3e, r29	; 62
     ca0:	0f be       	out	0x3f, r0	; 63
     ca2:	cd bf       	out	0x3d, r28	; 61
     ca4:	cf 91       	pop	r28
     ca6:	df 91       	pop	r29
     ca8:	1f 91       	pop	r17
     caa:	0f 91       	pop	r16
     cac:	ff 90       	pop	r15
     cae:	ef 90       	pop	r14
     cb0:	df 90       	pop	r13
     cb2:	cf 90       	pop	r12
     cb4:	bf 90       	pop	r11
     cb6:	af 90       	pop	r10
     cb8:	9f 90       	pop	r9
     cba:	8f 90       	pop	r8
     cbc:	7f 90       	pop	r7
     cbe:	5f 90       	pop	r5
     cc0:	4f 90       	pop	r4
     cc2:	08 95       	ret

00000cc4 <_ZN5Print5printEmi>:
     cc4:	dc 01       	movw	r26, r24
     cc6:	21 15       	cp	r18, r1
     cc8:	31 05       	cpc	r19, r1
     cca:	41 f4       	brne	.+16     	; 0xcdc <_ZN5Print5printEmi+0x18>
     ccc:	ed 91       	ld	r30, X+
     cce:	fc 91       	ld	r31, X
     cd0:	01 90       	ld	r0, Z+
     cd2:	f0 81       	ld	r31, Z
     cd4:	e0 2d       	mov	r30, r0
     cd6:	64 2f       	mov	r22, r20
     cd8:	09 95       	icall
     cda:	08 95       	ret
     cdc:	0e 94 fe 05 	call	0xbfc	; 0xbfc <_ZN5Print11printNumberEmh>
     ce0:	08 95       	ret

00000ce2 <_ZN5Print7printlnEmi>:
     ce2:	ef 92       	push	r14
     ce4:	ff 92       	push	r15
     ce6:	0f 93       	push	r16
     ce8:	1f 93       	push	r17
     cea:	7c 01       	movw	r14, r24
     cec:	0e 94 62 06 	call	0xcc4	; 0xcc4 <_ZN5Print5printEmi>
     cf0:	8c 01       	movw	r16, r24
     cf2:	c7 01       	movw	r24, r14
     cf4:	0e 94 7c 05 	call	0xaf8	; 0xaf8 <_ZN5Print7printlnEv>
     cf8:	9c 01       	movw	r18, r24
     cfa:	20 0f       	add	r18, r16
     cfc:	31 1f       	adc	r19, r17
     cfe:	c9 01       	movw	r24, r18
     d00:	1f 91       	pop	r17
     d02:	0f 91       	pop	r16
     d04:	ff 90       	pop	r15
     d06:	ef 90       	pop	r14
     d08:	08 95       	ret

00000d0a <_ZN5Print5printEji>:
     d0a:	ef 92       	push	r14
     d0c:	ff 92       	push	r15
     d0e:	0f 93       	push	r16
     d10:	1f 93       	push	r17
     d12:	9a 01       	movw	r18, r20
     d14:	7b 01       	movw	r14, r22
     d16:	00 e0       	ldi	r16, 0x00	; 0
     d18:	10 e0       	ldi	r17, 0x00	; 0
     d1a:	b8 01       	movw	r22, r16
     d1c:	a7 01       	movw	r20, r14
     d1e:	0e 94 62 06 	call	0xcc4	; 0xcc4 <_ZN5Print5printEmi>
     d22:	1f 91       	pop	r17
     d24:	0f 91       	pop	r16
     d26:	ff 90       	pop	r15
     d28:	ef 90       	pop	r14
     d2a:	08 95       	ret

00000d2c <_ZN5Print7printlnEji>:
     d2c:	cf 92       	push	r12
     d2e:	df 92       	push	r13
     d30:	ef 92       	push	r14
     d32:	ff 92       	push	r15
     d34:	0f 93       	push	r16
     d36:	1f 93       	push	r17
     d38:	6c 01       	movw	r12, r24
     d3a:	7b 01       	movw	r14, r22
     d3c:	9a 01       	movw	r18, r20
     d3e:	00 e0       	ldi	r16, 0x00	; 0
     d40:	10 e0       	ldi	r17, 0x00	; 0
     d42:	b8 01       	movw	r22, r16
     d44:	a7 01       	movw	r20, r14
     d46:	0e 94 62 06 	call	0xcc4	; 0xcc4 <_ZN5Print5printEmi>
     d4a:	8c 01       	movw	r16, r24
     d4c:	c6 01       	movw	r24, r12
     d4e:	0e 94 7c 05 	call	0xaf8	; 0xaf8 <_ZN5Print7printlnEv>
     d52:	08 0f       	add	r16, r24
     d54:	19 1f       	adc	r17, r25
     d56:	c8 01       	movw	r24, r16
     d58:	1f 91       	pop	r17
     d5a:	0f 91       	pop	r16
     d5c:	ff 90       	pop	r15
     d5e:	ef 90       	pop	r14
     d60:	df 90       	pop	r13
     d62:	cf 90       	pop	r12
     d64:	08 95       	ret

00000d66 <_ZN5Print5printEhi>:
     d66:	ef 92       	push	r14
     d68:	ff 92       	push	r15
     d6a:	0f 93       	push	r16
     d6c:	1f 93       	push	r17
     d6e:	9a 01       	movw	r18, r20
     d70:	e6 2e       	mov	r14, r22
     d72:	ff 24       	eor	r15, r15
     d74:	00 e0       	ldi	r16, 0x00	; 0
     d76:	10 e0       	ldi	r17, 0x00	; 0
     d78:	b8 01       	movw	r22, r16
     d7a:	a7 01       	movw	r20, r14
     d7c:	0e 94 62 06 	call	0xcc4	; 0xcc4 <_ZN5Print5printEmi>
     d80:	1f 91       	pop	r17
     d82:	0f 91       	pop	r16
     d84:	ff 90       	pop	r15
     d86:	ef 90       	pop	r14
     d88:	08 95       	ret

00000d8a <_ZN5Print7printlnEhi>:
     d8a:	cf 92       	push	r12
     d8c:	df 92       	push	r13
     d8e:	ef 92       	push	r14
     d90:	ff 92       	push	r15
     d92:	0f 93       	push	r16
     d94:	1f 93       	push	r17
     d96:	6c 01       	movw	r12, r24
     d98:	e6 2e       	mov	r14, r22
     d9a:	9a 01       	movw	r18, r20
     d9c:	ff 24       	eor	r15, r15
     d9e:	00 e0       	ldi	r16, 0x00	; 0
     da0:	10 e0       	ldi	r17, 0x00	; 0
     da2:	b8 01       	movw	r22, r16
     da4:	a7 01       	movw	r20, r14
     da6:	0e 94 62 06 	call	0xcc4	; 0xcc4 <_ZN5Print5printEmi>
     daa:	8c 01       	movw	r16, r24
     dac:	c6 01       	movw	r24, r12
     dae:	0e 94 7c 05 	call	0xaf8	; 0xaf8 <_ZN5Print7printlnEv>
     db2:	08 0f       	add	r16, r24
     db4:	19 1f       	adc	r17, r25
     db6:	c8 01       	movw	r24, r16
     db8:	1f 91       	pop	r17
     dba:	0f 91       	pop	r16
     dbc:	ff 90       	pop	r15
     dbe:	ef 90       	pop	r14
     dc0:	df 90       	pop	r13
     dc2:	cf 90       	pop	r12
     dc4:	08 95       	ret

00000dc6 <_ZN5Print5printEli>:
     dc6:	cf 92       	push	r12
     dc8:	df 92       	push	r13
     dca:	ef 92       	push	r14
     dcc:	ff 92       	push	r15
     dce:	0f 93       	push	r16
     dd0:	1f 93       	push	r17
     dd2:	cf 93       	push	r28
     dd4:	df 93       	push	r29
     dd6:	ec 01       	movw	r28, r24
     dd8:	6a 01       	movw	r12, r20
     dda:	7b 01       	movw	r14, r22
     ddc:	21 15       	cp	r18, r1
     dde:	31 05       	cpc	r19, r1
     de0:	41 f4       	brne	.+16     	; 0xdf2 <_ZN5Print5printEli+0x2c>
     de2:	e8 81       	ld	r30, Y
     de4:	f9 81       	ldd	r31, Y+1	; 0x01
     de6:	01 90       	ld	r0, Z+
     de8:	f0 81       	ld	r31, Z
     dea:	e0 2d       	mov	r30, r0
     dec:	64 2f       	mov	r22, r20
     dee:	09 95       	icall
     df0:	1f c0       	rjmp	.+62     	; 0xe30 <_ZN5Print5printEli+0x6a>
     df2:	2a 30       	cpi	r18, 0x0A	; 10
     df4:	31 05       	cpc	r19, r1
     df6:	d1 f4       	brne	.+52     	; 0xe2c <_ZN5Print5printEli+0x66>
     df8:	77 ff       	sbrs	r23, 7
     dfa:	17 c0       	rjmp	.+46     	; 0xe2a <_ZN5Print5printEli+0x64>
     dfc:	e8 81       	ld	r30, Y
     dfe:	f9 81       	ldd	r31, Y+1	; 0x01
     e00:	01 90       	ld	r0, Z+
     e02:	f0 81       	ld	r31, Z
     e04:	e0 2d       	mov	r30, r0
     e06:	6d e2       	ldi	r22, 0x2D	; 45
     e08:	09 95       	icall
     e0a:	8c 01       	movw	r16, r24
     e0c:	44 27       	eor	r20, r20
     e0e:	55 27       	eor	r21, r21
     e10:	ba 01       	movw	r22, r20
     e12:	4c 19       	sub	r20, r12
     e14:	5d 09       	sbc	r21, r13
     e16:	6e 09       	sbc	r22, r14
     e18:	7f 09       	sbc	r23, r15
     e1a:	ce 01       	movw	r24, r28
     e1c:	2a e0       	ldi	r18, 0x0A	; 10
     e1e:	0e 94 fe 05 	call	0xbfc	; 0xbfc <_ZN5Print11printNumberEmh>
     e22:	98 01       	movw	r18, r16
     e24:	28 0f       	add	r18, r24
     e26:	39 1f       	adc	r19, r25
     e28:	04 c0       	rjmp	.+8      	; 0xe32 <_ZN5Print5printEli+0x6c>
     e2a:	2a e0       	ldi	r18, 0x0A	; 10
     e2c:	0e 94 fe 05 	call	0xbfc	; 0xbfc <_ZN5Print11printNumberEmh>
     e30:	9c 01       	movw	r18, r24
     e32:	c9 01       	movw	r24, r18
     e34:	df 91       	pop	r29
     e36:	cf 91       	pop	r28
     e38:	1f 91       	pop	r17
     e3a:	0f 91       	pop	r16
     e3c:	ff 90       	pop	r15
     e3e:	ef 90       	pop	r14
     e40:	df 90       	pop	r13
     e42:	cf 90       	pop	r12
     e44:	08 95       	ret

00000e46 <_ZN5Print7printlnEli>:
     e46:	ef 92       	push	r14
     e48:	ff 92       	push	r15
     e4a:	0f 93       	push	r16
     e4c:	1f 93       	push	r17
     e4e:	7c 01       	movw	r14, r24
     e50:	0e 94 e3 06 	call	0xdc6	; 0xdc6 <_ZN5Print5printEli>
     e54:	8c 01       	movw	r16, r24
     e56:	c7 01       	movw	r24, r14
     e58:	0e 94 7c 05 	call	0xaf8	; 0xaf8 <_ZN5Print7printlnEv>
     e5c:	9c 01       	movw	r18, r24
     e5e:	20 0f       	add	r18, r16
     e60:	31 1f       	adc	r19, r17
     e62:	c9 01       	movw	r24, r18
     e64:	1f 91       	pop	r17
     e66:	0f 91       	pop	r16
     e68:	ff 90       	pop	r15
     e6a:	ef 90       	pop	r14
     e6c:	08 95       	ret

00000e6e <_ZN5Print5printEii>:
     e6e:	ef 92       	push	r14
     e70:	ff 92       	push	r15
     e72:	0f 93       	push	r16
     e74:	1f 93       	push	r17
     e76:	7b 01       	movw	r14, r22
     e78:	9a 01       	movw	r18, r20
     e7a:	00 27       	eor	r16, r16
     e7c:	f7 fc       	sbrc	r15, 7
     e7e:	00 95       	com	r16
     e80:	10 2f       	mov	r17, r16
     e82:	b8 01       	movw	r22, r16
     e84:	a7 01       	movw	r20, r14
     e86:	0e 94 e3 06 	call	0xdc6	; 0xdc6 <_ZN5Print5printEli>
     e8a:	1f 91       	pop	r17
     e8c:	0f 91       	pop	r16
     e8e:	ff 90       	pop	r15
     e90:	ef 90       	pop	r14
     e92:	08 95       	ret

00000e94 <_ZN5Print7printlnEii>:
     e94:	cf 92       	push	r12
     e96:	df 92       	push	r13
     e98:	ef 92       	push	r14
     e9a:	ff 92       	push	r15
     e9c:	0f 93       	push	r16
     e9e:	1f 93       	push	r17
     ea0:	6c 01       	movw	r12, r24
     ea2:	7b 01       	movw	r14, r22
     ea4:	9a 01       	movw	r18, r20
     ea6:	00 27       	eor	r16, r16
     ea8:	f7 fc       	sbrc	r15, 7
     eaa:	00 95       	com	r16
     eac:	10 2f       	mov	r17, r16
     eae:	b8 01       	movw	r22, r16
     eb0:	a7 01       	movw	r20, r14
     eb2:	0e 94 e3 06 	call	0xdc6	; 0xdc6 <_ZN5Print5printEli>
     eb6:	8c 01       	movw	r16, r24
     eb8:	c6 01       	movw	r24, r12
     eba:	0e 94 7c 05 	call	0xaf8	; 0xaf8 <_ZN5Print7printlnEv>
     ebe:	08 0f       	add	r16, r24
     ec0:	19 1f       	adc	r17, r25
     ec2:	c8 01       	movw	r24, r16
     ec4:	1f 91       	pop	r17
     ec6:	0f 91       	pop	r16
     ec8:	ff 90       	pop	r15
     eca:	ef 90       	pop	r14
     ecc:	df 90       	pop	r13
     ece:	cf 90       	pop	r12
     ed0:	08 95       	ret

00000ed2 <_ZN5Print5printEPKc>:
     ed2:	0e 94 e2 05 	call	0xbc4	; 0xbc4 <_ZN5Print5writeEPKc>
     ed6:	08 95       	ret

00000ed8 <_ZN5Print10printFloatEdh>:
     ed8:	7f 92       	push	r7
     eda:	8f 92       	push	r8
     edc:	9f 92       	push	r9
     ede:	af 92       	push	r10
     ee0:	bf 92       	push	r11
     ee2:	cf 92       	push	r12
     ee4:	df 92       	push	r13
     ee6:	ef 92       	push	r14
     ee8:	ff 92       	push	r15
     eea:	0f 93       	push	r16
     eec:	1f 93       	push	r17
     eee:	cf 93       	push	r28
     ef0:	df 93       	push	r29
     ef2:	4c 01       	movw	r8, r24
     ef4:	7a 01       	movw	r14, r20
     ef6:	8b 01       	movw	r16, r22
     ef8:	72 2e       	mov	r7, r18
     efa:	cb 01       	movw	r24, r22
     efc:	ba 01       	movw	r22, r20
     efe:	a8 01       	movw	r20, r16
     f00:	97 01       	movw	r18, r14
     f02:	0e 94 5a 16 	call	0x2cb4	; 0x2cb4 <__unordsf2>
     f06:	88 23       	and	r24, r24
     f08:	21 f0       	breq	.+8      	; 0xf12 <_ZN5Print10printFloatEdh+0x3a>
     f0a:	c4 01       	movw	r24, r8
     f0c:	62 e2       	ldi	r22, 0x22	; 34
     f0e:	71 e0       	ldi	r23, 0x01	; 1
     f10:	21 c0       	rjmp	.+66     	; 0xf54 <_ZN5Print10printFloatEdh+0x7c>
     f12:	c0 e0       	ldi	r28, 0x00	; 0
     f14:	d0 e0       	ldi	r29, 0x00	; 0
     f16:	57 01       	movw	r10, r14
     f18:	68 01       	movw	r12, r16
     f1a:	e8 94       	clt
     f1c:	d7 f8       	bld	r13, 7
     f1e:	c6 01       	movw	r24, r12
     f20:	b5 01       	movw	r22, r10
     f22:	2f ef       	ldi	r18, 0xFF	; 255
     f24:	3f ef       	ldi	r19, 0xFF	; 255
     f26:	4f e7       	ldi	r20, 0x7F	; 127
     f28:	5f e7       	ldi	r21, 0x7F	; 127
     f2a:	0e 94 5a 16 	call	0x2cb4	; 0x2cb4 <__unordsf2>
     f2e:	88 23       	and	r24, r24
     f30:	51 f4       	brne	.+20     	; 0xf46 <_ZN5Print10printFloatEdh+0x6e>
     f32:	c6 01       	movw	r24, r12
     f34:	b5 01       	movw	r22, r10
     f36:	2f ef       	ldi	r18, 0xFF	; 255
     f38:	3f ef       	ldi	r19, 0xFF	; 255
     f3a:	4f e7       	ldi	r20, 0x7F	; 127
     f3c:	5f e7       	ldi	r21, 0x7F	; 127
     f3e:	0e 94 2a 16 	call	0x2c54	; 0x2c54 <__lesf2>
     f42:	18 16       	cp	r1, r24
     f44:	14 f0       	brlt	.+4      	; 0xf4a <_ZN5Print10printFloatEdh+0x72>
     f46:	c1 e0       	ldi	r28, 0x01	; 1
     f48:	d0 e0       	ldi	r29, 0x00	; 0
     f4a:	21 97       	sbiw	r28, 0x01	; 1
     f4c:	39 f0       	breq	.+14     	; 0xf5c <_ZN5Print10printFloatEdh+0x84>
     f4e:	c4 01       	movw	r24, r8
     f50:	66 e2       	ldi	r22, 0x26	; 38
     f52:	71 e0       	ldi	r23, 0x01	; 1
     f54:	0e 94 e2 05 	call	0xbc4	; 0xbc4 <_ZN5Print5writeEPKc>
     f58:	ec 01       	movw	r28, r24
     f5a:	93 c0       	rjmp	.+294    	; 0x1082 <_ZN5Print10printFloatEdh+0x1aa>
     f5c:	c8 01       	movw	r24, r16
     f5e:	b7 01       	movw	r22, r14
     f60:	2f ef       	ldi	r18, 0xFF	; 255
     f62:	3f ef       	ldi	r19, 0xFF	; 255
     f64:	4f e7       	ldi	r20, 0x7F	; 127
     f66:	5f e4       	ldi	r21, 0x4F	; 79
     f68:	0e 94 9a 15 	call	0x2b34	; 0x2b34 <__gtsf2>
     f6c:	18 16       	cp	r1, r24
     f6e:	54 f0       	brlt	.+20     	; 0xf84 <_ZN5Print10printFloatEdh+0xac>
     f70:	c8 01       	movw	r24, r16
     f72:	b7 01       	movw	r22, r14
     f74:	2f ef       	ldi	r18, 0xFF	; 255
     f76:	3f ef       	ldi	r19, 0xFF	; 255
     f78:	4f e7       	ldi	r20, 0x7F	; 127
     f7a:	5f ec       	ldi	r21, 0xCF	; 207
     f7c:	0e 94 fa 15 	call	0x2bf4	; 0x2bf4 <__ltsf2>
     f80:	88 23       	and	r24, r24
     f82:	24 f4       	brge	.+8      	; 0xf8c <_ZN5Print10printFloatEdh+0xb4>
     f84:	c4 01       	movw	r24, r8
     f86:	6a e2       	ldi	r22, 0x2A	; 42
     f88:	71 e0       	ldi	r23, 0x01	; 1
     f8a:	e4 cf       	rjmp	.-56     	; 0xf54 <_ZN5Print10printFloatEdh+0x7c>
     f8c:	c8 01       	movw	r24, r16
     f8e:	b7 01       	movw	r22, r14
     f90:	20 e0       	ldi	r18, 0x00	; 0
     f92:	30 e0       	ldi	r19, 0x00	; 0
     f94:	40 e0       	ldi	r20, 0x00	; 0
     f96:	50 e0       	ldi	r21, 0x00	; 0
     f98:	0e 94 fa 15 	call	0x2bf4	; 0x2bf4 <__ltsf2>
     f9c:	87 fd       	sbrc	r24, 7
     f9e:	03 c0       	rjmp	.+6      	; 0xfa6 <_ZN5Print10printFloatEdh+0xce>
     fa0:	c0 e0       	ldi	r28, 0x00	; 0
     fa2:	d0 e0       	ldi	r29, 0x00	; 0
     fa4:	0e c0       	rjmp	.+28     	; 0xfc2 <_ZN5Print10printFloatEdh+0xea>
     fa6:	d4 01       	movw	r26, r8
     fa8:	ed 91       	ld	r30, X+
     faa:	fc 91       	ld	r31, X
     fac:	01 90       	ld	r0, Z+
     fae:	f0 81       	ld	r31, Z
     fb0:	e0 2d       	mov	r30, r0
     fb2:	c4 01       	movw	r24, r8
     fb4:	6d e2       	ldi	r22, 0x2D	; 45
     fb6:	09 95       	icall
     fb8:	ec 01       	movw	r28, r24
     fba:	17 fb       	bst	r17, 7
     fbc:	10 95       	com	r17
     fbe:	17 f9       	bld	r17, 7
     fc0:	10 95       	com	r17
     fc2:	20 e0       	ldi	r18, 0x00	; 0
     fc4:	30 e0       	ldi	r19, 0x00	; 0
     fc6:	40 e0       	ldi	r20, 0x00	; 0
     fc8:	5f e3       	ldi	r21, 0x3F	; 63
     fca:	dd 24       	eor	r13, r13
     fcc:	0b c0       	rjmp	.+22     	; 0xfe4 <_ZN5Print10printFloatEdh+0x10c>
     fce:	ca 01       	movw	r24, r20
     fd0:	b9 01       	movw	r22, r18
     fd2:	20 e0       	ldi	r18, 0x00	; 0
     fd4:	30 e0       	ldi	r19, 0x00	; 0
     fd6:	40 e2       	ldi	r20, 0x20	; 32
     fd8:	51 e4       	ldi	r21, 0x41	; 65
     fda:	0e 94 ee 14 	call	0x29dc	; 0x29dc <__divsf3>
     fde:	9b 01       	movw	r18, r22
     fe0:	ac 01       	movw	r20, r24
     fe2:	d3 94       	inc	r13
     fe4:	d7 14       	cp	r13, r7
     fe6:	98 f3       	brcs	.-26     	; 0xfce <_ZN5Print10printFloatEdh+0xf6>
     fe8:	c8 01       	movw	r24, r16
     fea:	b7 01       	movw	r22, r14
     fec:	0e 94 c7 13 	call	0x278e	; 0x278e <__addsf3>
     ff0:	5b 01       	movw	r10, r22
     ff2:	6c 01       	movw	r12, r24
     ff4:	0e 94 1e 12 	call	0x243c	; 0x243c <__fixunssfsi>
     ff8:	7b 01       	movw	r14, r22
     ffa:	8c 01       	movw	r16, r24
     ffc:	c4 01       	movw	r24, r8
     ffe:	b8 01       	movw	r22, r16
    1000:	a7 01       	movw	r20, r14
    1002:	2a e0       	ldi	r18, 0x0A	; 10
    1004:	30 e0       	ldi	r19, 0x00	; 0
    1006:	0e 94 62 06 	call	0xcc4	; 0xcc4 <_ZN5Print5printEmi>
    100a:	c8 0f       	add	r28, r24
    100c:	d9 1f       	adc	r29, r25
    100e:	77 20       	and	r7, r7
    1010:	39 f0       	breq	.+14     	; 0x1020 <_ZN5Print10printFloatEdh+0x148>
    1012:	c4 01       	movw	r24, r8
    1014:	6e e2       	ldi	r22, 0x2E	; 46
    1016:	71 e0       	ldi	r23, 0x01	; 1
    1018:	0e 94 e2 05 	call	0xbc4	; 0xbc4 <_ZN5Print5writeEPKc>
    101c:	c8 0f       	add	r28, r24
    101e:	d9 1f       	adc	r29, r25
    1020:	c8 01       	movw	r24, r16
    1022:	b7 01       	movw	r22, r14
    1024:	0e 94 37 17 	call	0x2e6e	; 0x2e6e <__floatunsisf>
    1028:	9b 01       	movw	r18, r22
    102a:	ac 01       	movw	r20, r24
    102c:	c6 01       	movw	r24, r12
    102e:	b5 01       	movw	r22, r10
    1030:	0e 94 96 13 	call	0x272c	; 0x272c <__subsf3>
    1034:	24 c0       	rjmp	.+72     	; 0x107e <_ZN5Print10printFloatEdh+0x1a6>
    1036:	20 e0       	ldi	r18, 0x00	; 0
    1038:	30 e0       	ldi	r19, 0x00	; 0
    103a:	40 e2       	ldi	r20, 0x20	; 32
    103c:	51 e4       	ldi	r21, 0x41	; 65
    103e:	0e 94 f4 13 	call	0x27e8	; 0x27e8 <__mulsf3>
    1042:	7b 01       	movw	r14, r22
    1044:	8c 01       	movw	r16, r24
    1046:	0e 94 e3 16 	call	0x2dc6	; 0x2dc6 <__fixsfsi>
    104a:	5b 01       	movw	r10, r22
    104c:	6c 01       	movw	r12, r24
    104e:	cc 24       	eor	r12, r12
    1050:	b7 fc       	sbrc	r11, 7
    1052:	c0 94       	com	r12
    1054:	dc 2c       	mov	r13, r12
    1056:	c4 01       	movw	r24, r8
    1058:	b6 01       	movw	r22, r12
    105a:	a5 01       	movw	r20, r10
    105c:	2a e0       	ldi	r18, 0x0A	; 10
    105e:	30 e0       	ldi	r19, 0x00	; 0
    1060:	0e 94 e3 06 	call	0xdc6	; 0xdc6 <_ZN5Print5printEli>
    1064:	c8 0f       	add	r28, r24
    1066:	d9 1f       	adc	r29, r25
    1068:	c6 01       	movw	r24, r12
    106a:	b5 01       	movw	r22, r10
    106c:	0e 94 85 16 	call	0x2d0a	; 0x2d0a <__floatsisf>
    1070:	9b 01       	movw	r18, r22
    1072:	ac 01       	movw	r20, r24
    1074:	c8 01       	movw	r24, r16
    1076:	b7 01       	movw	r22, r14
    1078:	0e 94 96 13 	call	0x272c	; 0x272c <__subsf3>
    107c:	7a 94       	dec	r7
    107e:	77 20       	and	r7, r7
    1080:	d1 f6       	brne	.-76     	; 0x1036 <_ZN5Print10printFloatEdh+0x15e>
    1082:	ce 01       	movw	r24, r28
    1084:	df 91       	pop	r29
    1086:	cf 91       	pop	r28
    1088:	1f 91       	pop	r17
    108a:	0f 91       	pop	r16
    108c:	ff 90       	pop	r15
    108e:	ef 90       	pop	r14
    1090:	df 90       	pop	r13
    1092:	cf 90       	pop	r12
    1094:	bf 90       	pop	r11
    1096:	af 90       	pop	r10
    1098:	9f 90       	pop	r9
    109a:	8f 90       	pop	r8
    109c:	7f 90       	pop	r7
    109e:	08 95       	ret

000010a0 <_ZN5Print5printEdi>:
    10a0:	0e 94 6c 07 	call	0xed8	; 0xed8 <_ZN5Print10printFloatEdh>
    10a4:	08 95       	ret

000010a6 <_ZN5Print7printlnEdi>:
    10a6:	ef 92       	push	r14
    10a8:	ff 92       	push	r15
    10aa:	0f 93       	push	r16
    10ac:	1f 93       	push	r17
    10ae:	7c 01       	movw	r14, r24
    10b0:	0e 94 6c 07 	call	0xed8	; 0xed8 <_ZN5Print10printFloatEdh>
    10b4:	8c 01       	movw	r16, r24
    10b6:	c7 01       	movw	r24, r14
    10b8:	0e 94 7c 05 	call	0xaf8	; 0xaf8 <_ZN5Print7printlnEv>
    10bc:	08 0f       	add	r16, r24
    10be:	19 1f       	adc	r17, r25
    10c0:	c8 01       	movw	r24, r16
    10c2:	1f 91       	pop	r17
    10c4:	0f 91       	pop	r16
    10c6:	ff 90       	pop	r15
    10c8:	ef 90       	pop	r14
    10ca:	08 95       	ret

000010cc <_ZN5Print7printlnEPKc>:
    10cc:	ef 92       	push	r14
    10ce:	ff 92       	push	r15
    10d0:	0f 93       	push	r16
    10d2:	1f 93       	push	r17
    10d4:	7c 01       	movw	r14, r24
    10d6:	0e 94 e2 05 	call	0xbc4	; 0xbc4 <_ZN5Print5writeEPKc>
    10da:	8c 01       	movw	r16, r24
    10dc:	c7 01       	movw	r24, r14
    10de:	0e 94 7c 05 	call	0xaf8	; 0xaf8 <_ZN5Print7printlnEv>
    10e2:	08 0f       	add	r16, r24
    10e4:	19 1f       	adc	r17, r25
    10e6:	c8 01       	movw	r24, r16
    10e8:	1f 91       	pop	r17
    10ea:	0f 91       	pop	r16
    10ec:	ff 90       	pop	r15
    10ee:	ef 90       	pop	r14
    10f0:	08 95       	ret

000010f2 <_ZN5Print5printERK6String>:
    10f2:	af 92       	push	r10
    10f4:	bf 92       	push	r11
    10f6:	cf 92       	push	r12
    10f8:	df 92       	push	r13
    10fa:	ef 92       	push	r14
    10fc:	ff 92       	push	r15
    10fe:	0f 93       	push	r16
    1100:	1f 93       	push	r17
    1102:	cf 93       	push	r28
    1104:	df 93       	push	r29
    1106:	5c 01       	movw	r10, r24
    1108:	6b 01       	movw	r12, r22
    110a:	ee 24       	eor	r14, r14
    110c:	ff 24       	eor	r15, r15
    110e:	c0 e0       	ldi	r28, 0x00	; 0
    1110:	d0 e0       	ldi	r29, 0x00	; 0
    1112:	10 c0       	rjmp	.+32     	; 0x1134 <_ZN5Print5printERK6String+0x42>
    1114:	d5 01       	movw	r26, r10
    1116:	ed 91       	ld	r30, X+
    1118:	fc 91       	ld	r31, X
    111a:	00 81       	ld	r16, Z
    111c:	11 81       	ldd	r17, Z+1	; 0x01
    111e:	c6 01       	movw	r24, r12
    1120:	be 01       	movw	r22, r28
    1122:	0e 94 f3 08 	call	0x11e6	; 0x11e6 <_ZNK6StringixEj>
    1126:	68 2f       	mov	r22, r24
    1128:	c5 01       	movw	r24, r10
    112a:	f8 01       	movw	r30, r16
    112c:	09 95       	icall
    112e:	e8 0e       	add	r14, r24
    1130:	f9 1e       	adc	r15, r25
    1132:	21 96       	adiw	r28, 0x01	; 1
    1134:	f6 01       	movw	r30, r12
    1136:	84 81       	ldd	r24, Z+4	; 0x04
    1138:	95 81       	ldd	r25, Z+5	; 0x05
    113a:	c8 17       	cp	r28, r24
    113c:	d9 07       	cpc	r29, r25
    113e:	50 f3       	brcs	.-44     	; 0x1114 <_ZN5Print5printERK6String+0x22>
    1140:	c7 01       	movw	r24, r14
    1142:	df 91       	pop	r29
    1144:	cf 91       	pop	r28
    1146:	1f 91       	pop	r17
    1148:	0f 91       	pop	r16
    114a:	ff 90       	pop	r15
    114c:	ef 90       	pop	r14
    114e:	df 90       	pop	r13
    1150:	cf 90       	pop	r12
    1152:	bf 90       	pop	r11
    1154:	af 90       	pop	r10
    1156:	08 95       	ret

00001158 <_ZN5Print7printlnERK6String>:
    1158:	ef 92       	push	r14
    115a:	ff 92       	push	r15
    115c:	0f 93       	push	r16
    115e:	1f 93       	push	r17
    1160:	7c 01       	movw	r14, r24
    1162:	0e 94 79 08 	call	0x10f2	; 0x10f2 <_ZN5Print5printERK6String>
    1166:	8c 01       	movw	r16, r24
    1168:	c7 01       	movw	r24, r14
    116a:	0e 94 7c 05 	call	0xaf8	; 0xaf8 <_ZN5Print7printlnEv>
    116e:	9c 01       	movw	r18, r24
    1170:	20 0f       	add	r18, r16
    1172:	31 1f       	adc	r19, r17
    1174:	c9 01       	movw	r24, r18
    1176:	1f 91       	pop	r17
    1178:	0f 91       	pop	r16
    117a:	ff 90       	pop	r15
    117c:	ef 90       	pop	r14
    117e:	08 95       	ret

00001180 <_ZNK6String6charAtEj>:
    1180:	fc 01       	movw	r30, r24
    1182:	84 81       	ldd	r24, Z+4	; 0x04
    1184:	95 81       	ldd	r25, Z+5	; 0x05
    1186:	68 17       	cp	r22, r24
    1188:	79 07       	cpc	r23, r25
    118a:	48 f4       	brcc	.+18     	; 0x119e <_ZNK6String6charAtEj+0x1e>
    118c:	01 90       	ld	r0, Z+
    118e:	f0 81       	ld	r31, Z
    1190:	e0 2d       	mov	r30, r0
    1192:	30 97       	sbiw	r30, 0x00	; 0
    1194:	21 f0       	breq	.+8      	; 0x119e <_ZNK6String6charAtEj+0x1e>
    1196:	e6 0f       	add	r30, r22
    1198:	f7 1f       	adc	r31, r23
    119a:	80 81       	ld	r24, Z
    119c:	08 95       	ret
    119e:	80 e0       	ldi	r24, 0x00	; 0
    11a0:	08 95       	ret

000011a2 <_ZN6String9setCharAtEjc>:
    11a2:	fc 01       	movw	r30, r24
    11a4:	84 81       	ldd	r24, Z+4	; 0x04
    11a6:	95 81       	ldd	r25, Z+5	; 0x05
    11a8:	68 17       	cp	r22, r24
    11aa:	79 07       	cpc	r23, r25
    11ac:	30 f4       	brcc	.+12     	; 0x11ba <_ZN6String9setCharAtEjc+0x18>
    11ae:	01 90       	ld	r0, Z+
    11b0:	f0 81       	ld	r31, Z
    11b2:	e0 2d       	mov	r30, r0
    11b4:	e6 0f       	add	r30, r22
    11b6:	f7 1f       	adc	r31, r23
    11b8:	40 83       	st	Z, r20
    11ba:	08 95       	ret

000011bc <_ZN6StringixEj>:
    11bc:	fc 01       	movw	r30, r24
    11be:	9b 01       	movw	r18, r22
    11c0:	84 81       	ldd	r24, Z+4	; 0x04
    11c2:	95 81       	ldd	r25, Z+5	; 0x05
    11c4:	68 17       	cp	r22, r24
    11c6:	79 07       	cpc	r23, r25
    11c8:	28 f4       	brcc	.+10     	; 0x11d4 <_ZN6StringixEj+0x18>
    11ca:	60 81       	ld	r22, Z
    11cc:	71 81       	ldd	r23, Z+1	; 0x01
    11ce:	61 15       	cp	r22, r1
    11d0:	71 05       	cpc	r23, r1
    11d2:	29 f4       	brne	.+10     	; 0x11de <_ZN6StringixEj+0x22>
    11d4:	10 92 ff 02 	sts	0x02FF, r1
    11d8:	6f ef       	ldi	r22, 0xFF	; 255
    11da:	72 e0       	ldi	r23, 0x02	; 2
    11dc:	02 c0       	rjmp	.+4      	; 0x11e2 <_ZN6StringixEj+0x26>
    11de:	62 0f       	add	r22, r18
    11e0:	73 1f       	adc	r23, r19
    11e2:	cb 01       	movw	r24, r22
    11e4:	08 95       	ret

000011e6 <_ZNK6StringixEj>:
    11e6:	fc 01       	movw	r30, r24
    11e8:	84 81       	ldd	r24, Z+4	; 0x04
    11ea:	95 81       	ldd	r25, Z+5	; 0x05
    11ec:	68 17       	cp	r22, r24
    11ee:	79 07       	cpc	r23, r25
    11f0:	48 f4       	brcc	.+18     	; 0x1204 <_ZNK6StringixEj+0x1e>
    11f2:	01 90       	ld	r0, Z+
    11f4:	f0 81       	ld	r31, Z
    11f6:	e0 2d       	mov	r30, r0
    11f8:	30 97       	sbiw	r30, 0x00	; 0
    11fa:	21 f0       	breq	.+8      	; 0x1204 <_ZNK6StringixEj+0x1e>
    11fc:	e6 0f       	add	r30, r22
    11fe:	f7 1f       	adc	r31, r23
    1200:	80 81       	ld	r24, Z
    1202:	08 95       	ret
    1204:	80 e0       	ldi	r24, 0x00	; 0
    1206:	08 95       	ret

00001208 <_ZN6String7replaceEcc>:
    1208:	fc 01       	movw	r30, r24
    120a:	01 90       	ld	r0, Z+
    120c:	f0 81       	ld	r31, Z
    120e:	e0 2d       	mov	r30, r0
    1210:	30 97       	sbiw	r30, 0x00	; 0
    1212:	29 f4       	brne	.+10     	; 0x121e <_ZN6String7replaceEcc+0x16>
    1214:	08 95       	ret
    1216:	86 17       	cp	r24, r22
    1218:	09 f4       	brne	.+2      	; 0x121c <_ZN6String7replaceEcc+0x14>
    121a:	40 83       	st	Z, r20
    121c:	31 96       	adiw	r30, 0x01	; 1
    121e:	80 81       	ld	r24, Z
    1220:	88 23       	and	r24, r24
    1222:	c9 f7       	brne	.-14     	; 0x1216 <_ZN6String7replaceEcc+0xe>
    1224:	08 95       	ret

00001226 <_ZNK6String5toIntEv>:
    1226:	fc 01       	movw	r30, r24
    1228:	80 81       	ld	r24, Z
    122a:	91 81       	ldd	r25, Z+1	; 0x01
    122c:	00 97       	sbiw	r24, 0x00	; 0
    122e:	29 f4       	brne	.+10     	; 0x123a <_ZNK6String5toIntEv+0x14>
    1230:	20 e0       	ldi	r18, 0x00	; 0
    1232:	30 e0       	ldi	r19, 0x00	; 0
    1234:	40 e0       	ldi	r20, 0x00	; 0
    1236:	50 e0       	ldi	r21, 0x00	; 0
    1238:	04 c0       	rjmp	.+8      	; 0x1242 <_ZNK6String5toIntEv+0x1c>
    123a:	0e 94 4e 1c 	call	0x389c	; 0x389c <atol>
    123e:	9b 01       	movw	r18, r22
    1240:	ac 01       	movw	r20, r24
    1242:	b9 01       	movw	r22, r18
    1244:	ca 01       	movw	r24, r20
    1246:	08 95       	ret

00001248 <_ZN6String4trimEv>:
    1248:	cf 92       	push	r12
    124a:	df 92       	push	r13
    124c:	ef 92       	push	r14
    124e:	ff 92       	push	r15
    1250:	0f 93       	push	r16
    1252:	1f 93       	push	r17
    1254:	cf 93       	push	r28
    1256:	df 93       	push	r29
    1258:	6c 01       	movw	r12, r24
    125a:	dc 01       	movw	r26, r24
    125c:	ed 90       	ld	r14, X+
    125e:	fc 90       	ld	r15, X
    1260:	11 97       	sbiw	r26, 0x01	; 1
    1262:	e1 14       	cp	r14, r1
    1264:	f1 04       	cpc	r15, r1
    1266:	09 f4       	brne	.+2      	; 0x126a <_ZN6String4trimEv+0x22>
    1268:	41 c0       	rjmp	.+130    	; 0x12ec <_ZN6String4trimEv+0xa4>
    126a:	14 96       	adiw	r26, 0x04	; 4
    126c:	cd 91       	ld	r28, X+
    126e:	dc 91       	ld	r29, X
    1270:	15 97       	sbiw	r26, 0x05	; 5
    1272:	20 97       	sbiw	r28, 0x00	; 0
    1274:	d9 f1       	breq	.+118    	; 0x12ec <_ZN6String4trimEv+0xa4>
    1276:	87 01       	movw	r16, r14
    1278:	02 c0       	rjmp	.+4      	; 0x127e <_ZN6String4trimEv+0x36>
    127a:	0f 5f       	subi	r16, 0xFF	; 255
    127c:	1f 4f       	sbci	r17, 0xFF	; 255
    127e:	f8 01       	movw	r30, r16
    1280:	80 81       	ld	r24, Z
    1282:	99 27       	eor	r25, r25
    1284:	87 fd       	sbrc	r24, 7
    1286:	90 95       	com	r25
    1288:	0e 94 75 1c 	call	0x38ea	; 0x38ea <isspace>
    128c:	89 2b       	or	r24, r25
    128e:	a9 f7       	brne	.-22     	; 0x127a <_ZN6String4trimEv+0x32>
    1290:	21 97       	sbiw	r28, 0x01	; 1
    1292:	ce 0d       	add	r28, r14
    1294:	df 1d       	adc	r29, r15
    1296:	01 c0       	rjmp	.+2      	; 0x129a <_ZN6String4trimEv+0x52>
    1298:	21 97       	sbiw	r28, 0x01	; 1
    129a:	88 81       	ld	r24, Y
    129c:	99 27       	eor	r25, r25
    129e:	87 fd       	sbrc	r24, 7
    12a0:	90 95       	com	r25
    12a2:	0e 94 75 1c 	call	0x38ea	; 0x38ea <isspace>
    12a6:	89 2b       	or	r24, r25
    12a8:	19 f0       	breq	.+6      	; 0x12b0 <_ZN6String4trimEv+0x68>
    12aa:	c0 17       	cp	r28, r16
    12ac:	d1 07       	cpc	r29, r17
    12ae:	a0 f7       	brcc	.-24     	; 0x1298 <_ZN6String4trimEv+0x50>
    12b0:	fe 01       	movw	r30, r28
    12b2:	31 96       	adiw	r30, 0x01	; 1
    12b4:	e0 1b       	sub	r30, r16
    12b6:	f1 0b       	sbc	r31, r17
    12b8:	d6 01       	movw	r26, r12
    12ba:	15 96       	adiw	r26, 0x05	; 5
    12bc:	fc 93       	st	X, r31
    12be:	ee 93       	st	-X, r30
    12c0:	14 97       	sbiw	r26, 0x04	; 4
    12c2:	2d 91       	ld	r18, X+
    12c4:	3c 91       	ld	r19, X
    12c6:	20 17       	cp	r18, r16
    12c8:	31 07       	cpc	r19, r17
    12ca:	28 f4       	brcc	.+10     	; 0x12d6 <_ZN6String4trimEv+0x8e>
    12cc:	c9 01       	movw	r24, r18
    12ce:	b8 01       	movw	r22, r16
    12d0:	af 01       	movw	r20, r30
    12d2:	0e 94 8d 1c 	call	0x391a	; 0x391a <memcpy>
    12d6:	d6 01       	movw	r26, r12
    12d8:	ed 91       	ld	r30, X+
    12da:	fc 91       	ld	r31, X
    12dc:	11 97       	sbiw	r26, 0x01	; 1
    12de:	14 96       	adiw	r26, 0x04	; 4
    12e0:	8d 91       	ld	r24, X+
    12e2:	9c 91       	ld	r25, X
    12e4:	15 97       	sbiw	r26, 0x05	; 5
    12e6:	e8 0f       	add	r30, r24
    12e8:	f9 1f       	adc	r31, r25
    12ea:	10 82       	st	Z, r1
    12ec:	df 91       	pop	r29
    12ee:	cf 91       	pop	r28
    12f0:	1f 91       	pop	r17
    12f2:	0f 91       	pop	r16
    12f4:	ff 90       	pop	r15
    12f6:	ef 90       	pop	r14
    12f8:	df 90       	pop	r13
    12fa:	cf 90       	pop	r12
    12fc:	08 95       	ret

000012fe <_ZN6String11toUpperCaseEv>:
    12fe:	cf 93       	push	r28
    1300:	df 93       	push	r29
    1302:	fc 01       	movw	r30, r24
    1304:	c0 81       	ld	r28, Z
    1306:	d1 81       	ldd	r29, Z+1	; 0x01
    1308:	20 97       	sbiw	r28, 0x00	; 0
    130a:	39 f4       	brne	.+14     	; 0x131a <_ZN6String11toUpperCaseEv+0x1c>
    130c:	09 c0       	rjmp	.+18     	; 0x1320 <_ZN6String11toUpperCaseEv+0x22>
    130e:	99 27       	eor	r25, r25
    1310:	87 fd       	sbrc	r24, 7
    1312:	90 95       	com	r25
    1314:	0e 94 85 1c 	call	0x390a	; 0x390a <toupper>
    1318:	89 93       	st	Y+, r24
    131a:	88 81       	ld	r24, Y
    131c:	88 23       	and	r24, r24
    131e:	b9 f7       	brne	.-18     	; 0x130e <_ZN6String11toUpperCaseEv+0x10>
    1320:	df 91       	pop	r29
    1322:	cf 91       	pop	r28
    1324:	08 95       	ret

00001326 <_ZN6String11toLowerCaseEv>:
    1326:	cf 93       	push	r28
    1328:	df 93       	push	r29
    132a:	fc 01       	movw	r30, r24
    132c:	c0 81       	ld	r28, Z
    132e:	d1 81       	ldd	r29, Z+1	; 0x01
    1330:	20 97       	sbiw	r28, 0x00	; 0
    1332:	39 f4       	brne	.+14     	; 0x1342 <_ZN6String11toLowerCaseEv+0x1c>
    1334:	09 c0       	rjmp	.+18     	; 0x1348 <_ZN6String11toLowerCaseEv+0x22>
    1336:	99 27       	eor	r25, r25
    1338:	87 fd       	sbrc	r24, 7
    133a:	90 95       	com	r25
    133c:	0e 94 7d 1c 	call	0x38fa	; 0x38fa <tolower>
    1340:	89 93       	st	Y+, r24
    1342:	88 81       	ld	r24, Y
    1344:	88 23       	and	r24, r24
    1346:	b9 f7       	brne	.-18     	; 0x1336 <_ZN6String11toLowerCaseEv+0x10>
    1348:	df 91       	pop	r29
    134a:	cf 91       	pop	r28
    134c:	08 95       	ret

0000134e <_ZNK6String16equalsIgnoreCaseERKS_>:
    134e:	ef 92       	push	r14
    1350:	ff 92       	push	r15
    1352:	0f 93       	push	r16
    1354:	1f 93       	push	r17
    1356:	cf 93       	push	r28
    1358:	df 93       	push	r29
    135a:	fc 01       	movw	r30, r24
    135c:	db 01       	movw	r26, r22
    135e:	86 17       	cp	r24, r22
    1360:	97 07       	cpc	r25, r23
    1362:	39 f1       	breq	.+78     	; 0x13b2 <_ZNK6String16equalsIgnoreCaseERKS_+0x64>
    1364:	24 81       	ldd	r18, Z+4	; 0x04
    1366:	35 81       	ldd	r19, Z+5	; 0x05
    1368:	14 96       	adiw	r26, 0x04	; 4
    136a:	8d 91       	ld	r24, X+
    136c:	9c 91       	ld	r25, X
    136e:	15 97       	sbiw	r26, 0x05	; 5
    1370:	28 17       	cp	r18, r24
    1372:	39 07       	cpc	r19, r25
    1374:	01 f5       	brne	.+64     	; 0x13b6 <_ZNK6String16equalsIgnoreCaseERKS_+0x68>
    1376:	23 2b       	or	r18, r19
    1378:	e1 f0       	breq	.+56     	; 0x13b2 <_ZNK6String16equalsIgnoreCaseERKS_+0x64>
    137a:	e0 80       	ld	r14, Z
    137c:	f1 80       	ldd	r15, Z+1	; 0x01
    137e:	cd 91       	ld	r28, X+
    1380:	dc 91       	ld	r29, X
    1382:	13 c0       	rjmp	.+38     	; 0x13aa <_ZNK6String16equalsIgnoreCaseERKS_+0x5c>
    1384:	99 27       	eor	r25, r25
    1386:	87 fd       	sbrc	r24, 7
    1388:	90 95       	com	r25
    138a:	0e 94 7d 1c 	call	0x38fa	; 0x38fa <tolower>
    138e:	8c 01       	movw	r16, r24
    1390:	88 81       	ld	r24, Y
    1392:	99 27       	eor	r25, r25
    1394:	87 fd       	sbrc	r24, 7
    1396:	90 95       	com	r25
    1398:	0e 94 7d 1c 	call	0x38fa	; 0x38fa <tolower>
    139c:	08 17       	cp	r16, r24
    139e:	19 07       	cpc	r17, r25
    13a0:	51 f4       	brne	.+20     	; 0x13b6 <_ZNK6String16equalsIgnoreCaseERKS_+0x68>
    13a2:	08 94       	sec
    13a4:	e1 1c       	adc	r14, r1
    13a6:	f1 1c       	adc	r15, r1
    13a8:	21 96       	adiw	r28, 0x01	; 1
    13aa:	f7 01       	movw	r30, r14
    13ac:	80 81       	ld	r24, Z
    13ae:	88 23       	and	r24, r24
    13b0:	49 f7       	brne	.-46     	; 0x1384 <_ZNK6String16equalsIgnoreCaseERKS_+0x36>
    13b2:	81 e0       	ldi	r24, 0x01	; 1
    13b4:	01 c0       	rjmp	.+2      	; 0x13b8 <_ZNK6String16equalsIgnoreCaseERKS_+0x6a>
    13b6:	80 e0       	ldi	r24, 0x00	; 0
    13b8:	df 91       	pop	r29
    13ba:	cf 91       	pop	r28
    13bc:	1f 91       	pop	r17
    13be:	0f 91       	pop	r16
    13c0:	ff 90       	pop	r15
    13c2:	ef 90       	pop	r14
    13c4:	08 95       	ret

000013c6 <_ZNK6String11lastIndexOfERKS_j>:
    13c6:	af 92       	push	r10
    13c8:	bf 92       	push	r11
    13ca:	cf 92       	push	r12
    13cc:	df 92       	push	r13
    13ce:	ef 92       	push	r14
    13d0:	ff 92       	push	r15
    13d2:	0f 93       	push	r16
    13d4:	1f 93       	push	r17
    13d6:	cf 93       	push	r28
    13d8:	df 93       	push	r29
    13da:	fc 01       	movw	r30, r24
    13dc:	5b 01       	movw	r10, r22
    13de:	7a 01       	movw	r14, r20
    13e0:	db 01       	movw	r26, r22
    13e2:	14 96       	adiw	r26, 0x04	; 4
    13e4:	2d 91       	ld	r18, X+
    13e6:	3c 91       	ld	r19, X
    13e8:	15 97       	sbiw	r26, 0x05	; 5
    13ea:	21 15       	cp	r18, r1
    13ec:	31 05       	cpc	r19, r1
    13ee:	59 f1       	breq	.+86     	; 0x1446 <_ZNK6String11lastIndexOfERKS_j+0x80>
    13f0:	84 81       	ldd	r24, Z+4	; 0x04
    13f2:	95 81       	ldd	r25, Z+5	; 0x05
    13f4:	00 97       	sbiw	r24, 0x00	; 0
    13f6:	39 f1       	breq	.+78     	; 0x1446 <_ZNK6String11lastIndexOfERKS_j+0x80>
    13f8:	82 17       	cp	r24, r18
    13fa:	93 07       	cpc	r25, r19
    13fc:	20 f1       	brcs	.+72     	; 0x1446 <_ZNK6String11lastIndexOfERKS_j+0x80>
    13fe:	48 17       	cp	r20, r24
    1400:	59 07       	cpc	r21, r25
    1402:	20 f0       	brcs	.+8      	; 0x140c <_ZNK6String11lastIndexOfERKS_j+0x46>
    1404:	7c 01       	movw	r14, r24
    1406:	08 94       	sec
    1408:	e1 08       	sbc	r14, r1
    140a:	f1 08       	sbc	r15, r1
    140c:	00 81       	ld	r16, Z
    140e:	11 81       	ldd	r17, Z+1	; 0x01
    1410:	c8 01       	movw	r24, r16
    1412:	cf ef       	ldi	r28, 0xFF	; 255
    1414:	df ef       	ldi	r29, 0xFF	; 255
    1416:	68 01       	movw	r12, r16
    1418:	ce 0c       	add	r12, r14
    141a:	df 1c       	adc	r13, r15
    141c:	10 c0       	rjmp	.+32     	; 0x143e <_ZNK6String11lastIndexOfERKS_j+0x78>
    141e:	f5 01       	movw	r30, r10
    1420:	60 81       	ld	r22, Z
    1422:	71 81       	ldd	r23, Z+1	; 0x01
    1424:	0e 94 eb 1c 	call	0x39d6	; 0x39d6 <strstr>
    1428:	9c 01       	movw	r18, r24
    142a:	00 97       	sbiw	r24, 0x00	; 0
    142c:	71 f0       	breq	.+28     	; 0x144a <_ZNK6String11lastIndexOfERKS_j+0x84>
    142e:	80 1b       	sub	r24, r16
    1430:	91 0b       	sbc	r25, r17
    1432:	e8 16       	cp	r14, r24
    1434:	f9 06       	cpc	r15, r25
    1436:	08 f0       	brcs	.+2      	; 0x143a <_ZNK6String11lastIndexOfERKS_j+0x74>
    1438:	ec 01       	movw	r28, r24
    143a:	c9 01       	movw	r24, r18
    143c:	01 96       	adiw	r24, 0x01	; 1
    143e:	c8 16       	cp	r12, r24
    1440:	d9 06       	cpc	r13, r25
    1442:	68 f7       	brcc	.-38     	; 0x141e <_ZNK6String11lastIndexOfERKS_j+0x58>
    1444:	02 c0       	rjmp	.+4      	; 0x144a <_ZNK6String11lastIndexOfERKS_j+0x84>
    1446:	cf ef       	ldi	r28, 0xFF	; 255
    1448:	df ef       	ldi	r29, 0xFF	; 255
    144a:	ce 01       	movw	r24, r28
    144c:	df 91       	pop	r29
    144e:	cf 91       	pop	r28
    1450:	1f 91       	pop	r17
    1452:	0f 91       	pop	r16
    1454:	ff 90       	pop	r15
    1456:	ef 90       	pop	r14
    1458:	df 90       	pop	r13
    145a:	cf 90       	pop	r12
    145c:	bf 90       	pop	r11
    145e:	af 90       	pop	r10
    1460:	08 95       	ret

00001462 <_ZNK6String11lastIndexOfERKS_>:
    1462:	fc 01       	movw	r30, r24
    1464:	db 01       	movw	r26, r22
    1466:	44 81       	ldd	r20, Z+4	; 0x04
    1468:	55 81       	ldd	r21, Z+5	; 0x05
    146a:	14 96       	adiw	r26, 0x04	; 4
    146c:	8d 91       	ld	r24, X+
    146e:	9c 91       	ld	r25, X
    1470:	15 97       	sbiw	r26, 0x05	; 5
    1472:	48 1b       	sub	r20, r24
    1474:	59 0b       	sbc	r21, r25
    1476:	cf 01       	movw	r24, r30
    1478:	0e 94 e3 09 	call	0x13c6	; 0x13c6 <_ZNK6String11lastIndexOfERKS_j>
    147c:	08 95       	ret

0000147e <_ZNK6String7indexOfERKS_j>:
    147e:	cf 93       	push	r28
    1480:	df 93       	push	r29
    1482:	fc 01       	movw	r30, r24
    1484:	db 01       	movw	r26, r22
    1486:	84 81       	ldd	r24, Z+4	; 0x04
    1488:	95 81       	ldd	r25, Z+5	; 0x05
    148a:	48 17       	cp	r20, r24
    148c:	59 07       	cpc	r21, r25
    148e:	60 f4       	brcc	.+24     	; 0x14a8 <_ZNK6String7indexOfERKS_j+0x2a>
    1490:	c0 81       	ld	r28, Z
    1492:	d1 81       	ldd	r29, Z+1	; 0x01
    1494:	6d 91       	ld	r22, X+
    1496:	7c 91       	ld	r23, X
    1498:	ce 01       	movw	r24, r28
    149a:	84 0f       	add	r24, r20
    149c:	95 1f       	adc	r25, r21
    149e:	0e 94 eb 1c 	call	0x39d6	; 0x39d6 <strstr>
    14a2:	9c 01       	movw	r18, r24
    14a4:	00 97       	sbiw	r24, 0x00	; 0
    14a6:	19 f4       	brne	.+6      	; 0x14ae <_ZNK6String7indexOfERKS_j+0x30>
    14a8:	2f ef       	ldi	r18, 0xFF	; 255
    14aa:	3f ef       	ldi	r19, 0xFF	; 255
    14ac:	02 c0       	rjmp	.+4      	; 0x14b2 <_ZNK6String7indexOfERKS_j+0x34>
    14ae:	2c 1b       	sub	r18, r28
    14b0:	3d 0b       	sbc	r19, r29
    14b2:	c9 01       	movw	r24, r18
    14b4:	df 91       	pop	r29
    14b6:	cf 91       	pop	r28
    14b8:	08 95       	ret

000014ba <_ZNK6String7indexOfERKS_>:
    14ba:	40 e0       	ldi	r20, 0x00	; 0
    14bc:	50 e0       	ldi	r21, 0x00	; 0
    14be:	0e 94 3f 0a 	call	0x147e	; 0x147e <_ZNK6String7indexOfERKS_j>
    14c2:	08 95       	ret

000014c4 <_ZNK6String11lastIndexOfEcj>:
    14c4:	df 92       	push	r13
    14c6:	ef 92       	push	r14
    14c8:	ff 92       	push	r15
    14ca:	0f 93       	push	r16
    14cc:	1f 93       	push	r17
    14ce:	cf 93       	push	r28
    14d0:	df 93       	push	r29
    14d2:	ec 01       	movw	r28, r24
    14d4:	8c 81       	ldd	r24, Y+4	; 0x04
    14d6:	9d 81       	ldd	r25, Y+5	; 0x05
    14d8:	48 17       	cp	r20, r24
    14da:	59 07       	cpc	r21, r25
    14dc:	c8 f4       	brcc	.+50     	; 0x1510 <_ZNK6String11lastIndexOfEcj+0x4c>
    14de:	7a 01       	movw	r14, r20
    14e0:	08 94       	sec
    14e2:	e1 1c       	adc	r14, r1
    14e4:	f1 1c       	adc	r15, r1
    14e6:	e8 81       	ld	r30, Y
    14e8:	f9 81       	ldd	r31, Y+1	; 0x01
    14ea:	ee 0d       	add	r30, r14
    14ec:	ff 1d       	adc	r31, r15
    14ee:	d0 80       	ld	r13, Z
    14f0:	10 82       	st	Z, r1
    14f2:	08 81       	ld	r16, Y
    14f4:	19 81       	ldd	r17, Y+1	; 0x01
    14f6:	77 27       	eor	r23, r23
    14f8:	67 fd       	sbrc	r22, 7
    14fa:	70 95       	com	r23
    14fc:	c8 01       	movw	r24, r16
    14fe:	0e 94 e0 1c 	call	0x39c0	; 0x39c0 <strrchr>
    1502:	9c 01       	movw	r18, r24
    1504:	0e 0d       	add	r16, r14
    1506:	1f 1d       	adc	r17, r15
    1508:	f8 01       	movw	r30, r16
    150a:	d0 82       	st	Z, r13
    150c:	00 97       	sbiw	r24, 0x00	; 0
    150e:	19 f4       	brne	.+6      	; 0x1516 <_ZNK6String11lastIndexOfEcj+0x52>
    1510:	ef ef       	ldi	r30, 0xFF	; 255
    1512:	ff ef       	ldi	r31, 0xFF	; 255
    1514:	05 c0       	rjmp	.+10     	; 0x1520 <_ZNK6String11lastIndexOfEcj+0x5c>
    1516:	88 81       	ld	r24, Y
    1518:	99 81       	ldd	r25, Y+1	; 0x01
    151a:	f9 01       	movw	r30, r18
    151c:	e8 1b       	sub	r30, r24
    151e:	f9 0b       	sbc	r31, r25
    1520:	cf 01       	movw	r24, r30
    1522:	df 91       	pop	r29
    1524:	cf 91       	pop	r28
    1526:	1f 91       	pop	r17
    1528:	0f 91       	pop	r16
    152a:	ff 90       	pop	r15
    152c:	ef 90       	pop	r14
    152e:	df 90       	pop	r13
    1530:	08 95       	ret

00001532 <_ZNK6String11lastIndexOfEc>:
    1532:	fc 01       	movw	r30, r24
    1534:	44 81       	ldd	r20, Z+4	; 0x04
    1536:	55 81       	ldd	r21, Z+5	; 0x05
    1538:	41 50       	subi	r20, 0x01	; 1
    153a:	50 40       	sbci	r21, 0x00	; 0
    153c:	0e 94 62 0a 	call	0x14c4	; 0x14c4 <_ZNK6String11lastIndexOfEcj>
    1540:	08 95       	ret

00001542 <_ZNK6String7indexOfEcj>:
    1542:	cf 93       	push	r28
    1544:	df 93       	push	r29
    1546:	fc 01       	movw	r30, r24
    1548:	84 81       	ldd	r24, Z+4	; 0x04
    154a:	95 81       	ldd	r25, Z+5	; 0x05
    154c:	48 17       	cp	r20, r24
    154e:	59 07       	cpc	r21, r25
    1550:	68 f4       	brcc	.+26     	; 0x156c <_ZNK6String7indexOfEcj+0x2a>
    1552:	c0 81       	ld	r28, Z
    1554:	d1 81       	ldd	r29, Z+1	; 0x01
    1556:	77 27       	eor	r23, r23
    1558:	67 fd       	sbrc	r22, 7
    155a:	70 95       	com	r23
    155c:	ce 01       	movw	r24, r28
    155e:	84 0f       	add	r24, r20
    1560:	95 1f       	adc	r25, r21
    1562:	0e 94 a8 1c 	call	0x3950	; 0x3950 <strchr>
    1566:	9c 01       	movw	r18, r24
    1568:	00 97       	sbiw	r24, 0x00	; 0
    156a:	19 f4       	brne	.+6      	; 0x1572 <_ZNK6String7indexOfEcj+0x30>
    156c:	2f ef       	ldi	r18, 0xFF	; 255
    156e:	3f ef       	ldi	r19, 0xFF	; 255
    1570:	02 c0       	rjmp	.+4      	; 0x1576 <_ZNK6String7indexOfEcj+0x34>
    1572:	2c 1b       	sub	r18, r28
    1574:	3d 0b       	sbc	r19, r29
    1576:	c9 01       	movw	r24, r18
    1578:	df 91       	pop	r29
    157a:	cf 91       	pop	r28
    157c:	08 95       	ret

0000157e <_ZNK6String7indexOfEc>:
    157e:	40 e0       	ldi	r20, 0x00	; 0
    1580:	50 e0       	ldi	r21, 0x00	; 0
    1582:	0e 94 a1 0a 	call	0x1542	; 0x1542 <_ZNK6String7indexOfEcj>
    1586:	08 95       	ret

00001588 <_ZNK6String8getBytesEPhjj>:
    1588:	0f 93       	push	r16
    158a:	1f 93       	push	r17
    158c:	cf 93       	push	r28
    158e:	df 93       	push	r29
    1590:	fc 01       	movw	r30, r24
    1592:	8b 01       	movw	r16, r22
    1594:	41 15       	cp	r20, r1
    1596:	51 05       	cpc	r21, r1
    1598:	f9 f0       	breq	.+62     	; 0x15d8 <_ZNK6String8getBytesEPhjj+0x50>
    159a:	61 15       	cp	r22, r1
    159c:	71 05       	cpc	r23, r1
    159e:	e1 f0       	breq	.+56     	; 0x15d8 <_ZNK6String8getBytesEPhjj+0x50>
    15a0:	84 81       	ldd	r24, Z+4	; 0x04
    15a2:	95 81       	ldd	r25, Z+5	; 0x05
    15a4:	28 17       	cp	r18, r24
    15a6:	39 07       	cpc	r19, r25
    15a8:	18 f0       	brcs	.+6      	; 0x15b0 <_ZNK6String8getBytesEPhjj+0x28>
    15aa:	fb 01       	movw	r30, r22
    15ac:	10 82       	st	Z, r1
    15ae:	14 c0       	rjmp	.+40     	; 0x15d8 <_ZNK6String8getBytesEPhjj+0x50>
    15b0:	41 50       	subi	r20, 0x01	; 1
    15b2:	50 40       	sbci	r21, 0x00	; 0
    15b4:	ec 01       	movw	r28, r24
    15b6:	c2 1b       	sub	r28, r18
    15b8:	d3 0b       	sbc	r29, r19
    15ba:	4c 17       	cp	r20, r28
    15bc:	5d 07       	cpc	r21, r29
    15be:	08 f4       	brcc	.+2      	; 0x15c2 <_ZNK6String8getBytesEPhjj+0x3a>
    15c0:	ea 01       	movw	r28, r20
    15c2:	60 81       	ld	r22, Z
    15c4:	71 81       	ldd	r23, Z+1	; 0x01
    15c6:	62 0f       	add	r22, r18
    15c8:	73 1f       	adc	r23, r19
    15ca:	c8 01       	movw	r24, r16
    15cc:	ae 01       	movw	r20, r28
    15ce:	0e 94 d1 1c 	call	0x39a2	; 0x39a2 <strncpy>
    15d2:	c0 0f       	add	r28, r16
    15d4:	d1 1f       	adc	r29, r17
    15d6:	18 82       	st	Y, r1
    15d8:	df 91       	pop	r29
    15da:	cf 91       	pop	r28
    15dc:	1f 91       	pop	r17
    15de:	0f 91       	pop	r16
    15e0:	08 95       	ret

000015e2 <_ZNK6String8endsWithERKS_>:
    15e2:	fc 01       	movw	r30, r24
    15e4:	db 01       	movw	r26, r22
    15e6:	24 81       	ldd	r18, Z+4	; 0x04
    15e8:	35 81       	ldd	r19, Z+5	; 0x05
    15ea:	14 96       	adiw	r26, 0x04	; 4
    15ec:	4d 91       	ld	r20, X+
    15ee:	5c 91       	ld	r21, X
    15f0:	15 97       	sbiw	r26, 0x05	; 5
    15f2:	24 17       	cp	r18, r20
    15f4:	35 07       	cpc	r19, r21
    15f6:	a8 f0       	brcs	.+42     	; 0x1622 <_ZNK6String8endsWithERKS_+0x40>
    15f8:	80 81       	ld	r24, Z
    15fa:	91 81       	ldd	r25, Z+1	; 0x01
    15fc:	00 97       	sbiw	r24, 0x00	; 0
    15fe:	89 f0       	breq	.+34     	; 0x1622 <_ZNK6String8endsWithERKS_+0x40>
    1600:	6d 91       	ld	r22, X+
    1602:	7c 91       	ld	r23, X
    1604:	61 15       	cp	r22, r1
    1606:	71 05       	cpc	r23, r1
    1608:	61 f0       	breq	.+24     	; 0x1622 <_ZNK6String8endsWithERKS_+0x40>
    160a:	24 1b       	sub	r18, r20
    160c:	35 0b       	sbc	r19, r21
    160e:	82 0f       	add	r24, r18
    1610:	93 1f       	adc	r25, r19
    1612:	0e 94 b3 1c 	call	0x3966	; 0x3966 <strcmp>
    1616:	9c 01       	movw	r18, r24
    1618:	80 e0       	ldi	r24, 0x00	; 0
    161a:	23 2b       	or	r18, r19
    161c:	19 f4       	brne	.+6      	; 0x1624 <_ZNK6String8endsWithERKS_+0x42>
    161e:	81 e0       	ldi	r24, 0x01	; 1
    1620:	08 95       	ret
    1622:	80 e0       	ldi	r24, 0x00	; 0
    1624:	08 95       	ret

00001626 <_ZNK6String6equalsEPKc>:
    1626:	dc 01       	movw	r26, r24
    1628:	fb 01       	movw	r30, r22
    162a:	14 96       	adiw	r26, 0x04	; 4
    162c:	8d 91       	ld	r24, X+
    162e:	9c 91       	ld	r25, X
    1630:	15 97       	sbiw	r26, 0x05	; 5
    1632:	89 2b       	or	r24, r25
    1634:	31 f4       	brne	.+12     	; 0x1642 <_ZNK6String6equalsEPKc+0x1c>
    1636:	61 15       	cp	r22, r1
    1638:	71 05       	cpc	r23, r1
    163a:	a9 f0       	breq	.+42     	; 0x1666 <_ZNK6String6equalsEPKc+0x40>
    163c:	90 e0       	ldi	r25, 0x00	; 0
    163e:	80 81       	ld	r24, Z
    1640:	08 c0       	rjmp	.+16     	; 0x1652 <_ZNK6String6equalsEPKc+0x2c>
    1642:	0d 90       	ld	r0, X+
    1644:	bc 91       	ld	r27, X
    1646:	a0 2d       	mov	r26, r0
    1648:	61 15       	cp	r22, r1
    164a:	71 05       	cpc	r23, r1
    164c:	29 f4       	brne	.+10     	; 0x1658 <_ZNK6String6equalsEPKc+0x32>
    164e:	90 e0       	ldi	r25, 0x00	; 0
    1650:	8c 91       	ld	r24, X
    1652:	88 23       	and	r24, r24
    1654:	49 f4       	brne	.+18     	; 0x1668 <_ZNK6String6equalsEPKc+0x42>
    1656:	07 c0       	rjmp	.+14     	; 0x1666 <_ZNK6String6equalsEPKc+0x40>
    1658:	cd 01       	movw	r24, r26
    165a:	0e 94 b3 1c 	call	0x3966	; 0x3966 <strcmp>
    165e:	9c 01       	movw	r18, r24
    1660:	90 e0       	ldi	r25, 0x00	; 0
    1662:	23 2b       	or	r18, r19
    1664:	09 f4       	brne	.+2      	; 0x1668 <_ZNK6String6equalsEPKc+0x42>
    1666:	91 e0       	ldi	r25, 0x01	; 1
    1668:	89 2f       	mov	r24, r25
    166a:	08 95       	ret

0000166c <_ZNK6String9compareToERKS_>:
    166c:	cf 93       	push	r28
    166e:	df 93       	push	r29
    1670:	9c 01       	movw	r18, r24
    1672:	fb 01       	movw	r30, r22
    1674:	ec 01       	movw	r28, r24
    1676:	a8 81       	ld	r26, Y
    1678:	b9 81       	ldd	r27, Y+1	; 0x01
    167a:	10 97       	sbiw	r26, 0x00	; 0
    167c:	29 f0       	breq	.+10     	; 0x1688 <_ZNK6String9compareToERKS_+0x1c>
    167e:	60 81       	ld	r22, Z
    1680:	71 81       	ldd	r23, Z+1	; 0x01
    1682:	61 15       	cp	r22, r1
    1684:	71 05       	cpc	r23, r1
    1686:	d1 f4       	brne	.+52     	; 0x16bc <_ZNK6String9compareToERKS_+0x50>
    1688:	c0 81       	ld	r28, Z
    168a:	d1 81       	ldd	r29, Z+1	; 0x01
    168c:	20 97       	sbiw	r28, 0x00	; 0
    168e:	59 f0       	breq	.+22     	; 0x16a6 <_ZNK6String9compareToERKS_+0x3a>
    1690:	84 81       	ldd	r24, Z+4	; 0x04
    1692:	95 81       	ldd	r25, Z+5	; 0x05
    1694:	89 2b       	or	r24, r25
    1696:	39 f0       	breq	.+14     	; 0x16a6 <_ZNK6String9compareToERKS_+0x3a>
    1698:	88 81       	ld	r24, Y
    169a:	90 e0       	ldi	r25, 0x00	; 0
    169c:	22 27       	eor	r18, r18
    169e:	33 27       	eor	r19, r19
    16a0:	28 1b       	sub	r18, r24
    16a2:	39 0b       	sbc	r19, r25
    16a4:	12 c0       	rjmp	.+36     	; 0x16ca <_ZNK6String9compareToERKS_+0x5e>
    16a6:	10 97       	sbiw	r26, 0x00	; 0
    16a8:	71 f0       	breq	.+28     	; 0x16c6 <_ZNK6String9compareToERKS_+0x5a>
    16aa:	f9 01       	movw	r30, r18
    16ac:	84 81       	ldd	r24, Z+4	; 0x04
    16ae:	95 81       	ldd	r25, Z+5	; 0x05
    16b0:	89 2b       	or	r24, r25
    16b2:	49 f0       	breq	.+18     	; 0x16c6 <_ZNK6String9compareToERKS_+0x5a>
    16b4:	8c 91       	ld	r24, X
    16b6:	28 2f       	mov	r18, r24
    16b8:	30 e0       	ldi	r19, 0x00	; 0
    16ba:	07 c0       	rjmp	.+14     	; 0x16ca <_ZNK6String9compareToERKS_+0x5e>
    16bc:	cd 01       	movw	r24, r26
    16be:	0e 94 b3 1c 	call	0x3966	; 0x3966 <strcmp>
    16c2:	9c 01       	movw	r18, r24
    16c4:	02 c0       	rjmp	.+4      	; 0x16ca <_ZNK6String9compareToERKS_+0x5e>
    16c6:	20 e0       	ldi	r18, 0x00	; 0
    16c8:	30 e0       	ldi	r19, 0x00	; 0
    16ca:	c9 01       	movw	r24, r18
    16cc:	df 91       	pop	r29
    16ce:	cf 91       	pop	r28
    16d0:	08 95       	ret

000016d2 <_ZNK6StringgeERKS_>:
    16d2:	0e 94 36 0b 	call	0x166c	; 0x166c <_ZNK6String9compareToERKS_>
    16d6:	89 2f       	mov	r24, r25
    16d8:	80 95       	com	r24
    16da:	88 1f       	adc	r24, r24
    16dc:	88 27       	eor	r24, r24
    16de:	88 1f       	adc	r24, r24
    16e0:	08 95       	ret

000016e2 <_ZNK6StringleERKS_>:
    16e2:	0e 94 36 0b 	call	0x166c	; 0x166c <_ZNK6String9compareToERKS_>
    16e6:	20 e0       	ldi	r18, 0x00	; 0
    16e8:	18 16       	cp	r1, r24
    16ea:	19 06       	cpc	r1, r25
    16ec:	0c f0       	brlt	.+2      	; 0x16f0 <_ZNK6StringleERKS_+0xe>
    16ee:	21 e0       	ldi	r18, 0x01	; 1
    16f0:	82 2f       	mov	r24, r18
    16f2:	08 95       	ret

000016f4 <_ZNK6StringgtERKS_>:
    16f4:	0e 94 36 0b 	call	0x166c	; 0x166c <_ZNK6String9compareToERKS_>
    16f8:	20 e0       	ldi	r18, 0x00	; 0
    16fa:	18 16       	cp	r1, r24
    16fc:	19 06       	cpc	r1, r25
    16fe:	0c f4       	brge	.+2      	; 0x1702 <_ZNK6StringgtERKS_+0xe>
    1700:	21 e0       	ldi	r18, 0x01	; 1
    1702:	82 2f       	mov	r24, r18
    1704:	08 95       	ret

00001706 <_ZNK6StringltERKS_>:
    1706:	0e 94 36 0b 	call	0x166c	; 0x166c <_ZNK6String9compareToERKS_>
    170a:	89 2f       	mov	r24, r25
    170c:	88 1f       	adc	r24, r24
    170e:	88 27       	eor	r24, r24
    1710:	88 1f       	adc	r24, r24
    1712:	08 95       	ret

00001714 <_ZNK6String6equalsERKS_>:
    1714:	fc 01       	movw	r30, r24
    1716:	db 01       	movw	r26, r22
    1718:	24 81       	ldd	r18, Z+4	; 0x04
    171a:	35 81       	ldd	r19, Z+5	; 0x05
    171c:	14 96       	adiw	r26, 0x04	; 4
    171e:	8d 91       	ld	r24, X+
    1720:	9c 91       	ld	r25, X
    1722:	15 97       	sbiw	r26, 0x05	; 5
    1724:	28 17       	cp	r18, r24
    1726:	39 07       	cpc	r19, r25
    1728:	11 f0       	breq	.+4      	; 0x172e <_ZNK6String6equalsERKS_+0x1a>
    172a:	20 e0       	ldi	r18, 0x00	; 0
    172c:	07 c0       	rjmp	.+14     	; 0x173c <_ZNK6String6equalsERKS_+0x28>
    172e:	cf 01       	movw	r24, r30
    1730:	0e 94 36 0b 	call	0x166c	; 0x166c <_ZNK6String9compareToERKS_>
    1734:	20 e0       	ldi	r18, 0x00	; 0
    1736:	89 2b       	or	r24, r25
    1738:	09 f4       	brne	.+2      	; 0x173c <_ZNK6String6equalsERKS_+0x28>
    173a:	21 e0       	ldi	r18, 0x01	; 1
    173c:	82 2f       	mov	r24, r18
    173e:	08 95       	ret

00001740 <_ZNK6String10startsWithERKS_j>:
    1740:	fc 01       	movw	r30, r24
    1742:	db 01       	movw	r26, r22
    1744:	14 96       	adiw	r26, 0x04	; 4
    1746:	2d 91       	ld	r18, X+
    1748:	3c 91       	ld	r19, X
    174a:	15 97       	sbiw	r26, 0x05	; 5
    174c:	84 81       	ldd	r24, Z+4	; 0x04
    174e:	95 81       	ldd	r25, Z+5	; 0x05
    1750:	82 1b       	sub	r24, r18
    1752:	93 0b       	sbc	r25, r19
    1754:	84 17       	cp	r24, r20
    1756:	95 07       	cpc	r25, r21
    1758:	a0 f0       	brcs	.+40     	; 0x1782 <_ZNK6String10startsWithERKS_j+0x42>
    175a:	80 81       	ld	r24, Z
    175c:	91 81       	ldd	r25, Z+1	; 0x01
    175e:	00 97       	sbiw	r24, 0x00	; 0
    1760:	81 f0       	breq	.+32     	; 0x1782 <_ZNK6String10startsWithERKS_j+0x42>
    1762:	6d 91       	ld	r22, X+
    1764:	7c 91       	ld	r23, X
    1766:	61 15       	cp	r22, r1
    1768:	71 05       	cpc	r23, r1
    176a:	59 f0       	breq	.+22     	; 0x1782 <_ZNK6String10startsWithERKS_j+0x42>
    176c:	84 0f       	add	r24, r20
    176e:	95 1f       	adc	r25, r21
    1770:	a9 01       	movw	r20, r18
    1772:	0e 94 c3 1c 	call	0x3986	; 0x3986 <strncmp>
    1776:	9c 01       	movw	r18, r24
    1778:	80 e0       	ldi	r24, 0x00	; 0
    177a:	23 2b       	or	r18, r19
    177c:	19 f4       	brne	.+6      	; 0x1784 <_ZNK6String10startsWithERKS_j+0x44>
    177e:	81 e0       	ldi	r24, 0x01	; 1
    1780:	08 95       	ret
    1782:	80 e0       	ldi	r24, 0x00	; 0
    1784:	08 95       	ret

00001786 <_ZNK6String10startsWithERKS_>:
    1786:	fc 01       	movw	r30, r24
    1788:	db 01       	movw	r26, r22
    178a:	24 81       	ldd	r18, Z+4	; 0x04
    178c:	35 81       	ldd	r19, Z+5	; 0x05
    178e:	14 96       	adiw	r26, 0x04	; 4
    1790:	8d 91       	ld	r24, X+
    1792:	9c 91       	ld	r25, X
    1794:	15 97       	sbiw	r26, 0x05	; 5
    1796:	28 17       	cp	r18, r24
    1798:	39 07       	cpc	r19, r25
    179a:	10 f4       	brcc	.+4      	; 0x17a0 <_ZNK6String10startsWithERKS_+0x1a>
    179c:	80 e0       	ldi	r24, 0x00	; 0
    179e:	08 95       	ret
    17a0:	cf 01       	movw	r24, r30
    17a2:	40 e0       	ldi	r20, 0x00	; 0
    17a4:	50 e0       	ldi	r21, 0x00	; 0
    17a6:	0e 94 a0 0b 	call	0x1740	; 0x1740 <_ZNK6String10startsWithERKS_j>
    17aa:	08 95       	ret

000017ac <_ZN6String12changeBufferEj>:
    17ac:	0f 93       	push	r16
    17ae:	1f 93       	push	r17
    17b0:	cf 93       	push	r28
    17b2:	df 93       	push	r29
    17b4:	ec 01       	movw	r28, r24
    17b6:	8b 01       	movw	r16, r22
    17b8:	6f 5f       	subi	r22, 0xFF	; 255
    17ba:	7f 4f       	sbci	r23, 0xFF	; 255
    17bc:	88 81       	ld	r24, Y
    17be:	99 81       	ldd	r25, Y+1	; 0x01
    17c0:	0e 94 7f 1b 	call	0x36fe	; 0x36fe <realloc>
    17c4:	00 97       	sbiw	r24, 0x00	; 0
    17c6:	11 f4       	brne	.+4      	; 0x17cc <_ZN6String12changeBufferEj+0x20>
    17c8:	80 e0       	ldi	r24, 0x00	; 0
    17ca:	05 c0       	rjmp	.+10     	; 0x17d6 <_ZN6String12changeBufferEj+0x2a>
    17cc:	99 83       	std	Y+1, r25	; 0x01
    17ce:	88 83       	st	Y, r24
    17d0:	1b 83       	std	Y+3, r17	; 0x03
    17d2:	0a 83       	std	Y+2, r16	; 0x02
    17d4:	81 e0       	ldi	r24, 0x01	; 1
    17d6:	df 91       	pop	r29
    17d8:	cf 91       	pop	r28
    17da:	1f 91       	pop	r17
    17dc:	0f 91       	pop	r16
    17de:	08 95       	ret

000017e0 <_ZN6String7replaceERKS_S1_>:
    17e0:	2f 92       	push	r2
    17e2:	3f 92       	push	r3
    17e4:	4f 92       	push	r4
    17e6:	5f 92       	push	r5
    17e8:	6f 92       	push	r6
    17ea:	7f 92       	push	r7
    17ec:	8f 92       	push	r8
    17ee:	9f 92       	push	r9
    17f0:	af 92       	push	r10
    17f2:	bf 92       	push	r11
    17f4:	cf 92       	push	r12
    17f6:	df 92       	push	r13
    17f8:	ef 92       	push	r14
    17fa:	ff 92       	push	r15
    17fc:	0f 93       	push	r16
    17fe:	1f 93       	push	r17
    1800:	cf 93       	push	r28
    1802:	df 93       	push	r29
    1804:	5c 01       	movw	r10, r24
    1806:	2b 01       	movw	r4, r22
    1808:	4a 01       	movw	r8, r20
    180a:	dc 01       	movw	r26, r24
    180c:	14 96       	adiw	r26, 0x04	; 4
    180e:	0d 91       	ld	r16, X+
    1810:	1c 91       	ld	r17, X
    1812:	15 97       	sbiw	r26, 0x05	; 5
    1814:	01 15       	cp	r16, r1
    1816:	11 05       	cpc	r17, r1
    1818:	09 f4       	brne	.+2      	; 0x181c <_ZN6String7replaceERKS_S1_+0x3c>
    181a:	d4 c0       	rjmp	.+424    	; 0x19c4 <_ZN6String7replaceERKS_S1_+0x1e4>
    181c:	fb 01       	movw	r30, r22
    181e:	c4 80       	ldd	r12, Z+4	; 0x04
    1820:	d5 80       	ldd	r13, Z+5	; 0x05
    1822:	c1 14       	cp	r12, r1
    1824:	d1 04       	cpc	r13, r1
    1826:	09 f4       	brne	.+2      	; 0x182a <_ZN6String7replaceERKS_S1_+0x4a>
    1828:	cd c0       	rjmp	.+410    	; 0x19c4 <_ZN6String7replaceERKS_S1_+0x1e4>
    182a:	da 01       	movw	r26, r20
    182c:	14 96       	adiw	r26, 0x04	; 4
    182e:	6d 90       	ld	r6, X+
    1830:	7c 90       	ld	r7, X
    1832:	15 97       	sbiw	r26, 0x05	; 5
    1834:	6c 18       	sub	r6, r12
    1836:	7d 08       	sbc	r7, r13
    1838:	fc 01       	movw	r30, r24
    183a:	e0 80       	ld	r14, Z
    183c:	f1 80       	ldd	r15, Z+1	; 0x01
    183e:	61 14       	cp	r6, r1
    1840:	71 04       	cpc	r7, r1
    1842:	91 f0       	breq	.+36     	; 0x1868 <_ZN6String7replaceERKS_S1_+0x88>
    1844:	1b c0       	rjmp	.+54     	; 0x187c <_ZN6String7replaceERKS_S1_+0x9c>
    1846:	d4 01       	movw	r26, r8
    1848:	6c 91       	ld	r22, X
    184a:	11 96       	adiw	r26, 0x01	; 1
    184c:	7c 91       	ld	r23, X
    184e:	11 97       	sbiw	r26, 0x01	; 1
    1850:	14 96       	adiw	r26, 0x04	; 4
    1852:	4d 91       	ld	r20, X+
    1854:	5c 91       	ld	r21, X
    1856:	15 97       	sbiw	r26, 0x05	; 5
    1858:	8c 2f       	mov	r24, r28
    185a:	0e 94 8d 1c 	call	0x391a	; 0x391a <memcpy>
    185e:	f4 01       	movw	r30, r8
    1860:	e4 80       	ldd	r14, Z+4	; 0x04
    1862:	f5 80       	ldd	r15, Z+5	; 0x05
    1864:	ec 0e       	add	r14, r28
    1866:	fd 1e       	adc	r15, r29
    1868:	d2 01       	movw	r26, r4
    186a:	6d 91       	ld	r22, X+
    186c:	7c 91       	ld	r23, X
    186e:	c7 01       	movw	r24, r14
    1870:	0e 94 eb 1c 	call	0x39d6	; 0x39d6 <strstr>
    1874:	ec 01       	movw	r28, r24
    1876:	00 97       	sbiw	r24, 0x00	; 0
    1878:	31 f7       	brne	.-52     	; 0x1846 <_ZN6String7replaceERKS_S1_+0x66>
    187a:	a4 c0       	rjmp	.+328    	; 0x19c4 <_ZN6String7replaceERKS_S1_+0x1e4>
    187c:	77 fe       	sbrs	r7, 7
    187e:	02 c0       	rjmp	.+4      	; 0x1884 <_ZN6String7replaceERKS_S1_+0xa4>
    1880:	67 01       	movw	r12, r14
    1882:	2e c0       	rjmp	.+92     	; 0x18e0 <_ZN6String7replaceERKS_S1_+0x100>
    1884:	fb 01       	movw	r30, r22
    1886:	20 80       	ld	r2, Z
    1888:	31 80       	ldd	r3, Z+1	; 0x01
    188a:	e8 01       	movw	r28, r16
    188c:	3c c0       	rjmp	.+120    	; 0x1906 <_ZN6String7replaceERKS_S1_+0x126>
    188e:	8e 01       	movw	r16, r28
    1890:	0e 19       	sub	r16, r14
    1892:	1f 09       	sbc	r17, r15
    1894:	c6 01       	movw	r24, r12
    1896:	b7 01       	movw	r22, r14
    1898:	a8 01       	movw	r20, r16
    189a:	0e 94 8d 1c 	call	0x391a	; 0x391a <memcpy>
    189e:	0c 0d       	add	r16, r12
    18a0:	1d 1d       	adc	r17, r13
    18a2:	d4 01       	movw	r26, r8
    18a4:	6c 91       	ld	r22, X
    18a6:	11 96       	adiw	r26, 0x01	; 1
    18a8:	7c 91       	ld	r23, X
    18aa:	11 97       	sbiw	r26, 0x01	; 1
    18ac:	14 96       	adiw	r26, 0x04	; 4
    18ae:	4d 91       	ld	r20, X+
    18b0:	5c 91       	ld	r21, X
    18b2:	15 97       	sbiw	r26, 0x05	; 5
    18b4:	c8 01       	movw	r24, r16
    18b6:	0e 94 8d 1c 	call	0x391a	; 0x391a <memcpy>
    18ba:	f4 01       	movw	r30, r8
    18bc:	c4 80       	ldd	r12, Z+4	; 0x04
    18be:	d5 80       	ldd	r13, Z+5	; 0x05
    18c0:	c0 0e       	add	r12, r16
    18c2:	d1 1e       	adc	r13, r17
    18c4:	d2 01       	movw	r26, r4
    18c6:	14 96       	adiw	r26, 0x04	; 4
    18c8:	ed 90       	ld	r14, X+
    18ca:	fc 90       	ld	r15, X
    18cc:	15 97       	sbiw	r26, 0x05	; 5
    18ce:	ec 0e       	add	r14, r28
    18d0:	fd 1e       	adc	r15, r29
    18d2:	f5 01       	movw	r30, r10
    18d4:	84 81       	ldd	r24, Z+4	; 0x04
    18d6:	95 81       	ldd	r25, Z+5	; 0x05
    18d8:	86 0d       	add	r24, r6
    18da:	97 1d       	adc	r25, r7
    18dc:	95 83       	std	Z+5, r25	; 0x05
    18de:	84 83       	std	Z+4, r24	; 0x04
    18e0:	d2 01       	movw	r26, r4
    18e2:	6d 91       	ld	r22, X+
    18e4:	7c 91       	ld	r23, X
    18e6:	c7 01       	movw	r24, r14
    18e8:	0e 94 eb 1c 	call	0x39d6	; 0x39d6 <strstr>
    18ec:	ec 01       	movw	r28, r24
    18ee:	00 97       	sbiw	r24, 0x00	; 0
    18f0:	71 f6       	brne	.-100    	; 0x188e <_ZN6String7replaceERKS_S1_+0xae>
    18f2:	c6 01       	movw	r24, r12
    18f4:	b7 01       	movw	r22, r14
    18f6:	0e 94 bc 1c 	call	0x3978	; 0x3978 <strcpy>
    18fa:	64 c0       	rjmp	.+200    	; 0x19c4 <_ZN6String7replaceERKS_S1_+0x1e4>
    18fc:	7b 01       	movw	r14, r22
    18fe:	ec 0c       	add	r14, r12
    1900:	fd 1c       	adc	r15, r13
    1902:	c6 0d       	add	r28, r6
    1904:	d7 1d       	adc	r29, r7
    1906:	c7 01       	movw	r24, r14
    1908:	b1 01       	movw	r22, r2
    190a:	0e 94 eb 1c 	call	0x39d6	; 0x39d6 <strstr>
    190e:	bc 01       	movw	r22, r24
    1910:	00 97       	sbiw	r24, 0x00	; 0
    1912:	a1 f7       	brne	.-24     	; 0x18fc <_ZN6String7replaceERKS_S1_+0x11c>
    1914:	c0 17       	cp	r28, r16
    1916:	d1 07       	cpc	r29, r17
    1918:	09 f4       	brne	.+2      	; 0x191c <_ZN6String7replaceERKS_S1_+0x13c>
    191a:	54 c0       	rjmp	.+168    	; 0x19c4 <_ZN6String7replaceERKS_S1_+0x1e4>
    191c:	f5 01       	movw	r30, r10
    191e:	82 81       	ldd	r24, Z+2	; 0x02
    1920:	93 81       	ldd	r25, Z+3	; 0x03
    1922:	8c 17       	cp	r24, r28
    1924:	9d 07       	cpc	r25, r29
    1926:	08 f0       	brcs	.+2      	; 0x192a <_ZN6String7replaceERKS_S1_+0x14a>
    1928:	44 c0       	rjmp	.+136    	; 0x19b2 <_ZN6String7replaceERKS_S1_+0x1d2>
    192a:	c5 01       	movw	r24, r10
    192c:	be 01       	movw	r22, r28
    192e:	0e 94 d6 0b 	call	0x17ac	; 0x17ac <_ZN6String12changeBufferEj>
    1932:	88 23       	and	r24, r24
    1934:	f1 f5       	brne	.+124    	; 0x19b2 <_ZN6String7replaceERKS_S1_+0x1d2>
    1936:	46 c0       	rjmp	.+140    	; 0x19c4 <_ZN6String7replaceERKS_S1_+0x1e4>
    1938:	c5 01       	movw	r24, r10
    193a:	b2 01       	movw	r22, r4
    193c:	a9 01       	movw	r20, r18
    193e:	0e 94 e3 09 	call	0x13c6	; 0x13c6 <_ZNK6String11lastIndexOfERKS_j>
    1942:	ec 01       	movw	r28, r24
    1944:	97 fd       	sbrc	r25, 7
    1946:	3e c0       	rjmp	.+124    	; 0x19c4 <_ZN6String7replaceERKS_S1_+0x1e4>
    1948:	d5 01       	movw	r26, r10
    194a:	6d 91       	ld	r22, X+
    194c:	7c 91       	ld	r23, X
    194e:	11 97       	sbiw	r26, 0x01	; 1
    1950:	f2 01       	movw	r30, r4
    1952:	84 81       	ldd	r24, Z+4	; 0x04
    1954:	95 81       	ldd	r25, Z+5	; 0x05
    1956:	8c 0f       	add	r24, r28
    1958:	9d 1f       	adc	r25, r29
    195a:	68 0f       	add	r22, r24
    195c:	79 1f       	adc	r23, r25
    195e:	14 96       	adiw	r26, 0x04	; 4
    1960:	4d 91       	ld	r20, X+
    1962:	5c 91       	ld	r21, X
    1964:	15 97       	sbiw	r26, 0x05	; 5
    1966:	48 1b       	sub	r20, r24
    1968:	59 0b       	sbc	r21, r25
    196a:	cb 01       	movw	r24, r22
    196c:	86 0d       	add	r24, r6
    196e:	97 1d       	adc	r25, r7
    1970:	0e 94 96 1c 	call	0x392c	; 0x392c <memmove>
    1974:	d5 01       	movw	r26, r10
    1976:	14 96       	adiw	r26, 0x04	; 4
    1978:	8d 91       	ld	r24, X+
    197a:	9c 91       	ld	r25, X
    197c:	15 97       	sbiw	r26, 0x05	; 5
    197e:	86 0d       	add	r24, r6
    1980:	97 1d       	adc	r25, r7
    1982:	15 96       	adiw	r26, 0x05	; 5
    1984:	9c 93       	st	X, r25
    1986:	8e 93       	st	-X, r24
    1988:	14 97       	sbiw	r26, 0x04	; 4
    198a:	ed 91       	ld	r30, X+
    198c:	fc 91       	ld	r31, X
    198e:	11 97       	sbiw	r26, 0x01	; 1
    1990:	e8 0f       	add	r30, r24
    1992:	f9 1f       	adc	r31, r25
    1994:	10 82       	st	Z, r1
    1996:	2d 91       	ld	r18, X+
    1998:	3c 91       	ld	r19, X
    199a:	2c 0f       	add	r18, r28
    199c:	3d 1f       	adc	r19, r29
    199e:	f4 01       	movw	r30, r8
    19a0:	60 81       	ld	r22, Z
    19a2:	71 81       	ldd	r23, Z+1	; 0x01
    19a4:	44 81       	ldd	r20, Z+4	; 0x04
    19a6:	55 81       	ldd	r21, Z+5	; 0x05
    19a8:	c9 01       	movw	r24, r18
    19aa:	0e 94 8d 1c 	call	0x391a	; 0x391a <memcpy>
    19ae:	9e 01       	movw	r18, r28
    19b0:	05 c0       	rjmp	.+10     	; 0x19bc <_ZN6String7replaceERKS_S1_+0x1dc>
    19b2:	d5 01       	movw	r26, r10
    19b4:	14 96       	adiw	r26, 0x04	; 4
    19b6:	2d 91       	ld	r18, X+
    19b8:	3c 91       	ld	r19, X
    19ba:	15 97       	sbiw	r26, 0x05	; 5
    19bc:	21 50       	subi	r18, 0x01	; 1
    19be:	30 40       	sbci	r19, 0x00	; 0
    19c0:	37 ff       	sbrs	r19, 7
    19c2:	ba cf       	rjmp	.-140    	; 0x1938 <_ZN6String7replaceERKS_S1_+0x158>
    19c4:	df 91       	pop	r29
    19c6:	cf 91       	pop	r28
    19c8:	1f 91       	pop	r17
    19ca:	0f 91       	pop	r16
    19cc:	ff 90       	pop	r15
    19ce:	ef 90       	pop	r14
    19d0:	df 90       	pop	r13
    19d2:	cf 90       	pop	r12
    19d4:	bf 90       	pop	r11
    19d6:	af 90       	pop	r10
    19d8:	9f 90       	pop	r9
    19da:	8f 90       	pop	r8
    19dc:	7f 90       	pop	r7
    19de:	6f 90       	pop	r6
    19e0:	5f 90       	pop	r5
    19e2:	4f 90       	pop	r4
    19e4:	3f 90       	pop	r3
    19e6:	2f 90       	pop	r2
    19e8:	08 95       	ret

000019ea <_ZN6String7reserveEj>:
    19ea:	cf 93       	push	r28
    19ec:	df 93       	push	r29
    19ee:	ec 01       	movw	r28, r24
    19f0:	88 81       	ld	r24, Y
    19f2:	99 81       	ldd	r25, Y+1	; 0x01
    19f4:	89 2b       	or	r24, r25
    19f6:	29 f0       	breq	.+10     	; 0x1a02 <_ZN6String7reserveEj+0x18>
    19f8:	8a 81       	ldd	r24, Y+2	; 0x02
    19fa:	9b 81       	ldd	r25, Y+3	; 0x03
    19fc:	86 17       	cp	r24, r22
    19fe:	97 07       	cpc	r25, r23
    1a00:	60 f4       	brcc	.+24     	; 0x1a1a <_ZN6String7reserveEj+0x30>
    1a02:	ce 01       	movw	r24, r28
    1a04:	0e 94 d6 0b 	call	0x17ac	; 0x17ac <_ZN6String12changeBufferEj>
    1a08:	88 23       	and	r24, r24
    1a0a:	41 f0       	breq	.+16     	; 0x1a1c <_ZN6String7reserveEj+0x32>
    1a0c:	8c 81       	ldd	r24, Y+4	; 0x04
    1a0e:	9d 81       	ldd	r25, Y+5	; 0x05
    1a10:	89 2b       	or	r24, r25
    1a12:	19 f4       	brne	.+6      	; 0x1a1a <_ZN6String7reserveEj+0x30>
    1a14:	e8 81       	ld	r30, Y
    1a16:	f9 81       	ldd	r31, Y+1	; 0x01
    1a18:	10 82       	st	Z, r1
    1a1a:	81 e0       	ldi	r24, 0x01	; 1
    1a1c:	df 91       	pop	r29
    1a1e:	cf 91       	pop	r28
    1a20:	08 95       	ret

00001a22 <_ZN6String6concatEPKcj>:
    1a22:	ef 92       	push	r14
    1a24:	ff 92       	push	r15
    1a26:	0f 93       	push	r16
    1a28:	1f 93       	push	r17
    1a2a:	cf 93       	push	r28
    1a2c:	df 93       	push	r29
    1a2e:	ec 01       	movw	r28, r24
    1a30:	7b 01       	movw	r14, r22
    1a32:	6c 81       	ldd	r22, Y+4	; 0x04
    1a34:	7d 81       	ldd	r23, Y+5	; 0x05
    1a36:	e1 14       	cp	r14, r1
    1a38:	f1 04       	cpc	r15, r1
    1a3a:	c1 f0       	breq	.+48     	; 0x1a6c <_ZN6String6concatEPKcj+0x4a>
    1a3c:	41 15       	cp	r20, r1
    1a3e:	51 05       	cpc	r21, r1
    1a40:	99 f0       	breq	.+38     	; 0x1a68 <_ZN6String6concatEPKcj+0x46>
    1a42:	8a 01       	movw	r16, r20
    1a44:	06 0f       	add	r16, r22
    1a46:	17 1f       	adc	r17, r23
    1a48:	b8 01       	movw	r22, r16
    1a4a:	0e 94 f5 0c 	call	0x19ea	; 0x19ea <_ZN6String7reserveEj>
    1a4e:	88 23       	and	r24, r24
    1a50:	69 f0       	breq	.+26     	; 0x1a6c <_ZN6String6concatEPKcj+0x4a>
    1a52:	88 81       	ld	r24, Y
    1a54:	99 81       	ldd	r25, Y+1	; 0x01
    1a56:	2c 81       	ldd	r18, Y+4	; 0x04
    1a58:	3d 81       	ldd	r19, Y+5	; 0x05
    1a5a:	82 0f       	add	r24, r18
    1a5c:	93 1f       	adc	r25, r19
    1a5e:	b7 01       	movw	r22, r14
    1a60:	0e 94 bc 1c 	call	0x3978	; 0x3978 <strcpy>
    1a64:	1d 83       	std	Y+5, r17	; 0x05
    1a66:	0c 83       	std	Y+4, r16	; 0x04
    1a68:	81 e0       	ldi	r24, 0x01	; 1
    1a6a:	01 c0       	rjmp	.+2      	; 0x1a6e <_ZN6String6concatEPKcj+0x4c>
    1a6c:	80 e0       	ldi	r24, 0x00	; 0
    1a6e:	df 91       	pop	r29
    1a70:	cf 91       	pop	r28
    1a72:	1f 91       	pop	r17
    1a74:	0f 91       	pop	r16
    1a76:	ff 90       	pop	r15
    1a78:	ef 90       	pop	r14
    1a7a:	08 95       	ret

00001a7c <_ZN6String6concatEm>:
    1a7c:	ef 92       	push	r14
    1a7e:	ff 92       	push	r15
    1a80:	0f 93       	push	r16
    1a82:	1f 93       	push	r17
    1a84:	df 93       	push	r29
    1a86:	cf 93       	push	r28
    1a88:	cd b7       	in	r28, 0x3d	; 61
    1a8a:	de b7       	in	r29, 0x3e	; 62
    1a8c:	2b 97       	sbiw	r28, 0x0b	; 11
    1a8e:	0f b6       	in	r0, 0x3f	; 63
    1a90:	f8 94       	cli
    1a92:	de bf       	out	0x3e, r29	; 62
    1a94:	0f be       	out	0x3f, r0	; 63
    1a96:	cd bf       	out	0x3d, r28	; 61
    1a98:	7c 01       	movw	r14, r24
    1a9a:	cb 01       	movw	r24, r22
    1a9c:	ba 01       	movw	r22, r20
    1a9e:	8e 01       	movw	r16, r28
    1aa0:	0f 5f       	subi	r16, 0xFF	; 255
    1aa2:	1f 4f       	sbci	r17, 0xFF	; 255
    1aa4:	a8 01       	movw	r20, r16
    1aa6:	2a e0       	ldi	r18, 0x0A	; 10
    1aa8:	30 e0       	ldi	r19, 0x00	; 0
    1aaa:	0e 94 6f 1d 	call	0x3ade	; 0x3ade <ultoa>
    1aae:	f8 01       	movw	r30, r16
    1ab0:	01 90       	ld	r0, Z+
    1ab2:	00 20       	and	r0, r0
    1ab4:	e9 f7       	brne	.-6      	; 0x1ab0 <_ZN6String6concatEm+0x34>
    1ab6:	31 97       	sbiw	r30, 0x01	; 1
    1ab8:	e0 1b       	sub	r30, r16
    1aba:	f1 0b       	sbc	r31, r17
    1abc:	c7 01       	movw	r24, r14
    1abe:	b8 01       	movw	r22, r16
    1ac0:	af 01       	movw	r20, r30
    1ac2:	0e 94 11 0d 	call	0x1a22	; 0x1a22 <_ZN6String6concatEPKcj>
    1ac6:	2b 96       	adiw	r28, 0x0b	; 11
    1ac8:	0f b6       	in	r0, 0x3f	; 63
    1aca:	f8 94       	cli
    1acc:	de bf       	out	0x3e, r29	; 62
    1ace:	0f be       	out	0x3f, r0	; 63
    1ad0:	cd bf       	out	0x3d, r28	; 61
    1ad2:	cf 91       	pop	r28
    1ad4:	df 91       	pop	r29
    1ad6:	1f 91       	pop	r17
    1ad8:	0f 91       	pop	r16
    1ada:	ff 90       	pop	r15
    1adc:	ef 90       	pop	r14
    1ade:	08 95       	ret

00001ae0 <_ZN6String6concatEl>:
    1ae0:	ef 92       	push	r14
    1ae2:	ff 92       	push	r15
    1ae4:	0f 93       	push	r16
    1ae6:	1f 93       	push	r17
    1ae8:	df 93       	push	r29
    1aea:	cf 93       	push	r28
    1aec:	cd b7       	in	r28, 0x3d	; 61
    1aee:	de b7       	in	r29, 0x3e	; 62
    1af0:	2c 97       	sbiw	r28, 0x0c	; 12
    1af2:	0f b6       	in	r0, 0x3f	; 63
    1af4:	f8 94       	cli
    1af6:	de bf       	out	0x3e, r29	; 62
    1af8:	0f be       	out	0x3f, r0	; 63
    1afa:	cd bf       	out	0x3d, r28	; 61
    1afc:	7c 01       	movw	r14, r24
    1afe:	cb 01       	movw	r24, r22
    1b00:	ba 01       	movw	r22, r20
    1b02:	8e 01       	movw	r16, r28
    1b04:	0f 5f       	subi	r16, 0xFF	; 255
    1b06:	1f 4f       	sbci	r17, 0xFF	; 255
    1b08:	a8 01       	movw	r20, r16
    1b0a:	2a e0       	ldi	r18, 0x0A	; 10
    1b0c:	30 e0       	ldi	r19, 0x00	; 0
    1b0e:	0e 94 26 1d 	call	0x3a4c	; 0x3a4c <ltoa>
    1b12:	f8 01       	movw	r30, r16
    1b14:	01 90       	ld	r0, Z+
    1b16:	00 20       	and	r0, r0
    1b18:	e9 f7       	brne	.-6      	; 0x1b14 <_ZN6String6concatEl+0x34>
    1b1a:	31 97       	sbiw	r30, 0x01	; 1
    1b1c:	e0 1b       	sub	r30, r16
    1b1e:	f1 0b       	sbc	r31, r17
    1b20:	c7 01       	movw	r24, r14
    1b22:	b8 01       	movw	r22, r16
    1b24:	af 01       	movw	r20, r30
    1b26:	0e 94 11 0d 	call	0x1a22	; 0x1a22 <_ZN6String6concatEPKcj>
    1b2a:	2c 96       	adiw	r28, 0x0c	; 12
    1b2c:	0f b6       	in	r0, 0x3f	; 63
    1b2e:	f8 94       	cli
    1b30:	de bf       	out	0x3e, r29	; 62
    1b32:	0f be       	out	0x3f, r0	; 63
    1b34:	cd bf       	out	0x3d, r28	; 61
    1b36:	cf 91       	pop	r28
    1b38:	df 91       	pop	r29
    1b3a:	1f 91       	pop	r17
    1b3c:	0f 91       	pop	r16
    1b3e:	ff 90       	pop	r15
    1b40:	ef 90       	pop	r14
    1b42:	08 95       	ret

00001b44 <_ZN6String6concatEj>:
    1b44:	ef 92       	push	r14
    1b46:	ff 92       	push	r15
    1b48:	0f 93       	push	r16
    1b4a:	1f 93       	push	r17
    1b4c:	df 93       	push	r29
    1b4e:	cf 93       	push	r28
    1b50:	00 d0       	rcall	.+0      	; 0x1b52 <_ZN6String6concatEj+0xe>
    1b52:	00 d0       	rcall	.+0      	; 0x1b54 <_ZN6String6concatEj+0x10>
    1b54:	00 d0       	rcall	.+0      	; 0x1b56 <_ZN6String6concatEj+0x12>
    1b56:	cd b7       	in	r28, 0x3d	; 61
    1b58:	de b7       	in	r29, 0x3e	; 62
    1b5a:	7c 01       	movw	r14, r24
    1b5c:	cb 01       	movw	r24, r22
    1b5e:	8e 01       	movw	r16, r28
    1b60:	0f 5f       	subi	r16, 0xFF	; 255
    1b62:	1f 4f       	sbci	r17, 0xFF	; 255
    1b64:	b8 01       	movw	r22, r16
    1b66:	4a e0       	ldi	r20, 0x0A	; 10
    1b68:	50 e0       	ldi	r21, 0x00	; 0
    1b6a:	0e 94 94 1d 	call	0x3b28	; 0x3b28 <utoa>
    1b6e:	f8 01       	movw	r30, r16
    1b70:	01 90       	ld	r0, Z+
    1b72:	00 20       	and	r0, r0
    1b74:	e9 f7       	brne	.-6      	; 0x1b70 <_ZN6String6concatEj+0x2c>
    1b76:	31 97       	sbiw	r30, 0x01	; 1
    1b78:	e0 1b       	sub	r30, r16
    1b7a:	f1 0b       	sbc	r31, r17
    1b7c:	c7 01       	movw	r24, r14
    1b7e:	b8 01       	movw	r22, r16
    1b80:	af 01       	movw	r20, r30
    1b82:	0e 94 11 0d 	call	0x1a22	; 0x1a22 <_ZN6String6concatEPKcj>
    1b86:	26 96       	adiw	r28, 0x06	; 6
    1b88:	0f b6       	in	r0, 0x3f	; 63
    1b8a:	f8 94       	cli
    1b8c:	de bf       	out	0x3e, r29	; 62
    1b8e:	0f be       	out	0x3f, r0	; 63
    1b90:	cd bf       	out	0x3d, r28	; 61
    1b92:	cf 91       	pop	r28
    1b94:	df 91       	pop	r29
    1b96:	1f 91       	pop	r17
    1b98:	0f 91       	pop	r16
    1b9a:	ff 90       	pop	r15
    1b9c:	ef 90       	pop	r14
    1b9e:	08 95       	ret

00001ba0 <_ZN6String6concatEi>:
    1ba0:	ef 92       	push	r14
    1ba2:	ff 92       	push	r15
    1ba4:	0f 93       	push	r16
    1ba6:	1f 93       	push	r17
    1ba8:	df 93       	push	r29
    1baa:	cf 93       	push	r28
    1bac:	cd b7       	in	r28, 0x3d	; 61
    1bae:	de b7       	in	r29, 0x3e	; 62
    1bb0:	27 97       	sbiw	r28, 0x07	; 7
    1bb2:	0f b6       	in	r0, 0x3f	; 63
    1bb4:	f8 94       	cli
    1bb6:	de bf       	out	0x3e, r29	; 62
    1bb8:	0f be       	out	0x3f, r0	; 63
    1bba:	cd bf       	out	0x3d, r28	; 61
    1bbc:	7c 01       	movw	r14, r24
    1bbe:	cb 01       	movw	r24, r22
    1bc0:	8e 01       	movw	r16, r28
    1bc2:	0f 5f       	subi	r16, 0xFF	; 255
    1bc4:	1f 4f       	sbci	r17, 0xFF	; 255
    1bc6:	b8 01       	movw	r22, r16
    1bc8:	4a e0       	ldi	r20, 0x0A	; 10
    1bca:	50 e0       	ldi	r21, 0x00	; 0
    1bcc:	0e 94 05 1d 	call	0x3a0a	; 0x3a0a <itoa>
    1bd0:	f8 01       	movw	r30, r16
    1bd2:	01 90       	ld	r0, Z+
    1bd4:	00 20       	and	r0, r0
    1bd6:	e9 f7       	brne	.-6      	; 0x1bd2 <_ZN6String6concatEi+0x32>
    1bd8:	31 97       	sbiw	r30, 0x01	; 1
    1bda:	e0 1b       	sub	r30, r16
    1bdc:	f1 0b       	sbc	r31, r17
    1bde:	c7 01       	movw	r24, r14
    1be0:	b8 01       	movw	r22, r16
    1be2:	af 01       	movw	r20, r30
    1be4:	0e 94 11 0d 	call	0x1a22	; 0x1a22 <_ZN6String6concatEPKcj>
    1be8:	27 96       	adiw	r28, 0x07	; 7
    1bea:	0f b6       	in	r0, 0x3f	; 63
    1bec:	f8 94       	cli
    1bee:	de bf       	out	0x3e, r29	; 62
    1bf0:	0f be       	out	0x3f, r0	; 63
    1bf2:	cd bf       	out	0x3d, r28	; 61
    1bf4:	cf 91       	pop	r28
    1bf6:	df 91       	pop	r29
    1bf8:	1f 91       	pop	r17
    1bfa:	0f 91       	pop	r16
    1bfc:	ff 90       	pop	r15
    1bfe:	ef 90       	pop	r14
    1c00:	08 95       	ret

00001c02 <_ZN6String6concatEh>:
    1c02:	ef 92       	push	r14
    1c04:	ff 92       	push	r15
    1c06:	0f 93       	push	r16
    1c08:	1f 93       	push	r17
    1c0a:	df 93       	push	r29
    1c0c:	cf 93       	push	r28
    1c0e:	00 d0       	rcall	.+0      	; 0x1c10 <_ZN6String6concatEh+0xe>
    1c10:	00 d0       	rcall	.+0      	; 0x1c12 <_ZN6String6concatEh+0x10>
    1c12:	cd b7       	in	r28, 0x3d	; 61
    1c14:	de b7       	in	r29, 0x3e	; 62
    1c16:	7c 01       	movw	r14, r24
    1c18:	86 2f       	mov	r24, r22
    1c1a:	90 e0       	ldi	r25, 0x00	; 0
    1c1c:	8e 01       	movw	r16, r28
    1c1e:	0f 5f       	subi	r16, 0xFF	; 255
    1c20:	1f 4f       	sbci	r17, 0xFF	; 255
    1c22:	b8 01       	movw	r22, r16
    1c24:	4a e0       	ldi	r20, 0x0A	; 10
    1c26:	50 e0       	ldi	r21, 0x00	; 0
    1c28:	0e 94 05 1d 	call	0x3a0a	; 0x3a0a <itoa>
    1c2c:	f8 01       	movw	r30, r16
    1c2e:	01 90       	ld	r0, Z+
    1c30:	00 20       	and	r0, r0
    1c32:	e9 f7       	brne	.-6      	; 0x1c2e <_ZN6String6concatEh+0x2c>
    1c34:	31 97       	sbiw	r30, 0x01	; 1
    1c36:	e0 1b       	sub	r30, r16
    1c38:	f1 0b       	sbc	r31, r17
    1c3a:	c7 01       	movw	r24, r14
    1c3c:	b8 01       	movw	r22, r16
    1c3e:	af 01       	movw	r20, r30
    1c40:	0e 94 11 0d 	call	0x1a22	; 0x1a22 <_ZN6String6concatEPKcj>
    1c44:	0f 90       	pop	r0
    1c46:	0f 90       	pop	r0
    1c48:	0f 90       	pop	r0
    1c4a:	0f 90       	pop	r0
    1c4c:	cf 91       	pop	r28
    1c4e:	df 91       	pop	r29
    1c50:	1f 91       	pop	r17
    1c52:	0f 91       	pop	r16
    1c54:	ff 90       	pop	r15
    1c56:	ef 90       	pop	r14
    1c58:	08 95       	ret

00001c5a <_ZN6String6concatEc>:
    1c5a:	df 93       	push	r29
    1c5c:	cf 93       	push	r28
    1c5e:	00 d0       	rcall	.+0      	; 0x1c60 <_ZN6String6concatEc+0x6>
    1c60:	cd b7       	in	r28, 0x3d	; 61
    1c62:	de b7       	in	r29, 0x3e	; 62
    1c64:	69 83       	std	Y+1, r22	; 0x01
    1c66:	1a 82       	std	Y+2, r1	; 0x02
    1c68:	be 01       	movw	r22, r28
    1c6a:	6f 5f       	subi	r22, 0xFF	; 255
    1c6c:	7f 4f       	sbci	r23, 0xFF	; 255
    1c6e:	41 e0       	ldi	r20, 0x01	; 1
    1c70:	50 e0       	ldi	r21, 0x00	; 0
    1c72:	0e 94 11 0d 	call	0x1a22	; 0x1a22 <_ZN6String6concatEPKcj>
    1c76:	0f 90       	pop	r0
    1c78:	0f 90       	pop	r0
    1c7a:	cf 91       	pop	r28
    1c7c:	df 91       	pop	r29
    1c7e:	08 95       	ret

00001c80 <_ZN6String6concatEPKc>:
    1c80:	61 15       	cp	r22, r1
    1c82:	71 05       	cpc	r23, r1
    1c84:	11 f4       	brne	.+4      	; 0x1c8a <_ZN6String6concatEPKc+0xa>
    1c86:	80 e0       	ldi	r24, 0x00	; 0
    1c88:	08 95       	ret
    1c8a:	db 01       	movw	r26, r22
    1c8c:	0d 90       	ld	r0, X+
    1c8e:	00 20       	and	r0, r0
    1c90:	e9 f7       	brne	.-6      	; 0x1c8c <_ZN6String6concatEPKc+0xc>
    1c92:	11 97       	sbiw	r26, 0x01	; 1
    1c94:	a6 1b       	sub	r26, r22
    1c96:	b7 0b       	sbc	r27, r23
    1c98:	ad 01       	movw	r20, r26
    1c9a:	0e 94 11 0d 	call	0x1a22	; 0x1a22 <_ZN6String6concatEPKcj>
    1c9e:	08 95       	ret

00001ca0 <_ZN6String6concatERKS_>:
    1ca0:	fb 01       	movw	r30, r22
    1ca2:	60 81       	ld	r22, Z
    1ca4:	71 81       	ldd	r23, Z+1	; 0x01
    1ca6:	44 81       	ldd	r20, Z+4	; 0x04
    1ca8:	55 81       	ldd	r21, Z+5	; 0x05
    1caa:	0e 94 11 0d 	call	0x1a22	; 0x1a22 <_ZN6String6concatEPKcj>
    1cae:	08 95       	ret

00001cb0 <_ZN6String10invalidateEv>:
    1cb0:	cf 93       	push	r28
    1cb2:	df 93       	push	r29
    1cb4:	ec 01       	movw	r28, r24
    1cb6:	88 81       	ld	r24, Y
    1cb8:	99 81       	ldd	r25, Y+1	; 0x01
    1cba:	00 97       	sbiw	r24, 0x00	; 0
    1cbc:	11 f0       	breq	.+4      	; 0x1cc2 <_ZN6String10invalidateEv+0x12>
    1cbe:	0e 94 e7 1a 	call	0x35ce	; 0x35ce <free>
    1cc2:	19 82       	std	Y+1, r1	; 0x01
    1cc4:	18 82       	st	Y, r1
    1cc6:	1d 82       	std	Y+5, r1	; 0x05
    1cc8:	1c 82       	std	Y+4, r1	; 0x04
    1cca:	1b 82       	std	Y+3, r1	; 0x03
    1ccc:	1a 82       	std	Y+2, r1	; 0x02
    1cce:	df 91       	pop	r29
    1cd0:	cf 91       	pop	r28
    1cd2:	08 95       	ret

00001cd4 <_ZplRK15StringSumHelperm>:
    1cd4:	0f 93       	push	r16
    1cd6:	1f 93       	push	r17
    1cd8:	18 2f       	mov	r17, r24
    1cda:	09 2f       	mov	r16, r25
    1cdc:	0e 94 3e 0d 	call	0x1a7c	; 0x1a7c <_ZN6String6concatEm>
    1ce0:	88 23       	and	r24, r24
    1ce2:	21 f4       	brne	.+8      	; 0x1cec <_ZplRK15StringSumHelperm+0x18>
    1ce4:	81 2f       	mov	r24, r17
    1ce6:	90 2f       	mov	r25, r16
    1ce8:	0e 94 58 0e 	call	0x1cb0	; 0x1cb0 <_ZN6String10invalidateEv>
    1cec:	81 2f       	mov	r24, r17
    1cee:	90 2f       	mov	r25, r16
    1cf0:	1f 91       	pop	r17
    1cf2:	0f 91       	pop	r16
    1cf4:	08 95       	ret

00001cf6 <_ZplRK15StringSumHelperl>:
    1cf6:	0f 93       	push	r16
    1cf8:	1f 93       	push	r17
    1cfa:	18 2f       	mov	r17, r24
    1cfc:	09 2f       	mov	r16, r25
    1cfe:	0e 94 70 0d 	call	0x1ae0	; 0x1ae0 <_ZN6String6concatEl>
    1d02:	88 23       	and	r24, r24
    1d04:	21 f4       	brne	.+8      	; 0x1d0e <_ZplRK15StringSumHelperl+0x18>
    1d06:	81 2f       	mov	r24, r17
    1d08:	90 2f       	mov	r25, r16
    1d0a:	0e 94 58 0e 	call	0x1cb0	; 0x1cb0 <_ZN6String10invalidateEv>
    1d0e:	81 2f       	mov	r24, r17
    1d10:	90 2f       	mov	r25, r16
    1d12:	1f 91       	pop	r17
    1d14:	0f 91       	pop	r16
    1d16:	08 95       	ret

00001d18 <_ZplRK15StringSumHelperj>:
    1d18:	0f 93       	push	r16
    1d1a:	1f 93       	push	r17
    1d1c:	18 2f       	mov	r17, r24
    1d1e:	09 2f       	mov	r16, r25
    1d20:	0e 94 a2 0d 	call	0x1b44	; 0x1b44 <_ZN6String6concatEj>
    1d24:	88 23       	and	r24, r24
    1d26:	21 f4       	brne	.+8      	; 0x1d30 <_ZplRK15StringSumHelperj+0x18>
    1d28:	81 2f       	mov	r24, r17
    1d2a:	90 2f       	mov	r25, r16
    1d2c:	0e 94 58 0e 	call	0x1cb0	; 0x1cb0 <_ZN6String10invalidateEv>
    1d30:	81 2f       	mov	r24, r17
    1d32:	90 2f       	mov	r25, r16
    1d34:	1f 91       	pop	r17
    1d36:	0f 91       	pop	r16
    1d38:	08 95       	ret

00001d3a <_ZplRK15StringSumHelperi>:
    1d3a:	0f 93       	push	r16
    1d3c:	1f 93       	push	r17
    1d3e:	18 2f       	mov	r17, r24
    1d40:	09 2f       	mov	r16, r25
    1d42:	0e 94 d0 0d 	call	0x1ba0	; 0x1ba0 <_ZN6String6concatEi>
    1d46:	88 23       	and	r24, r24
    1d48:	21 f4       	brne	.+8      	; 0x1d52 <_ZplRK15StringSumHelperi+0x18>
    1d4a:	81 2f       	mov	r24, r17
    1d4c:	90 2f       	mov	r25, r16
    1d4e:	0e 94 58 0e 	call	0x1cb0	; 0x1cb0 <_ZN6String10invalidateEv>
    1d52:	81 2f       	mov	r24, r17
    1d54:	90 2f       	mov	r25, r16
    1d56:	1f 91       	pop	r17
    1d58:	0f 91       	pop	r16
    1d5a:	08 95       	ret

00001d5c <_ZplRK15StringSumHelperh>:
    1d5c:	0f 93       	push	r16
    1d5e:	1f 93       	push	r17
    1d60:	18 2f       	mov	r17, r24
    1d62:	09 2f       	mov	r16, r25
    1d64:	0e 94 01 0e 	call	0x1c02	; 0x1c02 <_ZN6String6concatEh>
    1d68:	88 23       	and	r24, r24
    1d6a:	21 f4       	brne	.+8      	; 0x1d74 <_ZplRK15StringSumHelperh+0x18>
    1d6c:	81 2f       	mov	r24, r17
    1d6e:	90 2f       	mov	r25, r16
    1d70:	0e 94 58 0e 	call	0x1cb0	; 0x1cb0 <_ZN6String10invalidateEv>
    1d74:	81 2f       	mov	r24, r17
    1d76:	90 2f       	mov	r25, r16
    1d78:	1f 91       	pop	r17
    1d7a:	0f 91       	pop	r16
    1d7c:	08 95       	ret

00001d7e <_ZplRK15StringSumHelperc>:
    1d7e:	0f 93       	push	r16
    1d80:	1f 93       	push	r17
    1d82:	18 2f       	mov	r17, r24
    1d84:	09 2f       	mov	r16, r25
    1d86:	0e 94 2d 0e 	call	0x1c5a	; 0x1c5a <_ZN6String6concatEc>
    1d8a:	88 23       	and	r24, r24
    1d8c:	21 f4       	brne	.+8      	; 0x1d96 <_ZplRK15StringSumHelperc+0x18>
    1d8e:	81 2f       	mov	r24, r17
    1d90:	90 2f       	mov	r25, r16
    1d92:	0e 94 58 0e 	call	0x1cb0	; 0x1cb0 <_ZN6String10invalidateEv>
    1d96:	81 2f       	mov	r24, r17
    1d98:	90 2f       	mov	r25, r16
    1d9a:	1f 91       	pop	r17
    1d9c:	0f 91       	pop	r16
    1d9e:	08 95       	ret

00001da0 <_ZplRK15StringSumHelperPKc>:
    1da0:	0f 93       	push	r16
    1da2:	1f 93       	push	r17
    1da4:	18 2f       	mov	r17, r24
    1da6:	09 2f       	mov	r16, r25
    1da8:	61 15       	cp	r22, r1
    1daa:	71 05       	cpc	r23, r1
    1dac:	61 f0       	breq	.+24     	; 0x1dc6 <_ZplRK15StringSumHelperPKc+0x26>
    1dae:	db 01       	movw	r26, r22
    1db0:	0d 90       	ld	r0, X+
    1db2:	00 20       	and	r0, r0
    1db4:	e9 f7       	brne	.-6      	; 0x1db0 <_ZplRK15StringSumHelperPKc+0x10>
    1db6:	11 97       	sbiw	r26, 0x01	; 1
    1db8:	a6 1b       	sub	r26, r22
    1dba:	b7 0b       	sbc	r27, r23
    1dbc:	ad 01       	movw	r20, r26
    1dbe:	0e 94 11 0d 	call	0x1a22	; 0x1a22 <_ZN6String6concatEPKcj>
    1dc2:	88 23       	and	r24, r24
    1dc4:	21 f4       	brne	.+8      	; 0x1dce <_ZplRK15StringSumHelperPKc+0x2e>
    1dc6:	81 2f       	mov	r24, r17
    1dc8:	90 2f       	mov	r25, r16
    1dca:	0e 94 58 0e 	call	0x1cb0	; 0x1cb0 <_ZN6String10invalidateEv>
    1dce:	81 2f       	mov	r24, r17
    1dd0:	90 2f       	mov	r25, r16
    1dd2:	1f 91       	pop	r17
    1dd4:	0f 91       	pop	r16
    1dd6:	08 95       	ret

00001dd8 <_ZplRK15StringSumHelperRK6String>:
    1dd8:	0f 93       	push	r16
    1dda:	1f 93       	push	r17
    1ddc:	18 2f       	mov	r17, r24
    1dde:	09 2f       	mov	r16, r25
    1de0:	fb 01       	movw	r30, r22
    1de2:	60 81       	ld	r22, Z
    1de4:	71 81       	ldd	r23, Z+1	; 0x01
    1de6:	44 81       	ldd	r20, Z+4	; 0x04
    1de8:	55 81       	ldd	r21, Z+5	; 0x05
    1dea:	0e 94 11 0d 	call	0x1a22	; 0x1a22 <_ZN6String6concatEPKcj>
    1dee:	88 23       	and	r24, r24
    1df0:	21 f4       	brne	.+8      	; 0x1dfa <_ZplRK15StringSumHelperRK6String+0x22>
    1df2:	81 2f       	mov	r24, r17
    1df4:	90 2f       	mov	r25, r16
    1df6:	0e 94 58 0e 	call	0x1cb0	; 0x1cb0 <_ZN6String10invalidateEv>
    1dfa:	81 2f       	mov	r24, r17
    1dfc:	90 2f       	mov	r25, r16
    1dfe:	1f 91       	pop	r17
    1e00:	0f 91       	pop	r16
    1e02:	08 95       	ret

00001e04 <_ZN6String4copyEPKcj>:
    1e04:	ef 92       	push	r14
    1e06:	ff 92       	push	r15
    1e08:	0f 93       	push	r16
    1e0a:	1f 93       	push	r17
    1e0c:	cf 93       	push	r28
    1e0e:	df 93       	push	r29
    1e10:	ec 01       	movw	r28, r24
    1e12:	7b 01       	movw	r14, r22
    1e14:	8a 01       	movw	r16, r20
    1e16:	ba 01       	movw	r22, r20
    1e18:	0e 94 f5 0c 	call	0x19ea	; 0x19ea <_ZN6String7reserveEj>
    1e1c:	88 23       	and	r24, r24
    1e1e:	21 f4       	brne	.+8      	; 0x1e28 <_ZN6String4copyEPKcj+0x24>
    1e20:	ce 01       	movw	r24, r28
    1e22:	0e 94 58 0e 	call	0x1cb0	; 0x1cb0 <_ZN6String10invalidateEv>
    1e26:	07 c0       	rjmp	.+14     	; 0x1e36 <_ZN6String4copyEPKcj+0x32>
    1e28:	1d 83       	std	Y+5, r17	; 0x05
    1e2a:	0c 83       	std	Y+4, r16	; 0x04
    1e2c:	88 81       	ld	r24, Y
    1e2e:	99 81       	ldd	r25, Y+1	; 0x01
    1e30:	b7 01       	movw	r22, r14
    1e32:	0e 94 bc 1c 	call	0x3978	; 0x3978 <strcpy>
    1e36:	ce 01       	movw	r24, r28
    1e38:	df 91       	pop	r29
    1e3a:	cf 91       	pop	r28
    1e3c:	1f 91       	pop	r17
    1e3e:	0f 91       	pop	r16
    1e40:	ff 90       	pop	r15
    1e42:	ef 90       	pop	r14
    1e44:	08 95       	ret

00001e46 <_ZN6StringC1EPKc>:
    1e46:	cf 93       	push	r28
    1e48:	df 93       	push	r29
    1e4a:	ec 01       	movw	r28, r24
    1e4c:	19 82       	std	Y+1, r1	; 0x01
    1e4e:	18 82       	st	Y, r1
    1e50:	1b 82       	std	Y+3, r1	; 0x03
    1e52:	1a 82       	std	Y+2, r1	; 0x02
    1e54:	1d 82       	std	Y+5, r1	; 0x05
    1e56:	1c 82       	std	Y+4, r1	; 0x04
    1e58:	1e 82       	std	Y+6, r1	; 0x06
    1e5a:	61 15       	cp	r22, r1
    1e5c:	71 05       	cpc	r23, r1
    1e5e:	51 f0       	breq	.+20     	; 0x1e74 <_ZN6StringC1EPKc+0x2e>
    1e60:	db 01       	movw	r26, r22
    1e62:	0d 90       	ld	r0, X+
    1e64:	00 20       	and	r0, r0
    1e66:	e9 f7       	brne	.-6      	; 0x1e62 <_ZN6StringC1EPKc+0x1c>
    1e68:	11 97       	sbiw	r26, 0x01	; 1
    1e6a:	a6 1b       	sub	r26, r22
    1e6c:	b7 0b       	sbc	r27, r23
    1e6e:	ad 01       	movw	r20, r26
    1e70:	0e 94 02 0f 	call	0x1e04	; 0x1e04 <_ZN6String4copyEPKcj>
    1e74:	df 91       	pop	r29
    1e76:	cf 91       	pop	r28
    1e78:	08 95       	ret

00001e7a <_ZN6StringC2EPKc>:
    1e7a:	cf 93       	push	r28
    1e7c:	df 93       	push	r29
    1e7e:	ec 01       	movw	r28, r24
    1e80:	19 82       	std	Y+1, r1	; 0x01
    1e82:	18 82       	st	Y, r1
    1e84:	1b 82       	std	Y+3, r1	; 0x03
    1e86:	1a 82       	std	Y+2, r1	; 0x02
    1e88:	1d 82       	std	Y+5, r1	; 0x05
    1e8a:	1c 82       	std	Y+4, r1	; 0x04
    1e8c:	1e 82       	std	Y+6, r1	; 0x06
    1e8e:	61 15       	cp	r22, r1
    1e90:	71 05       	cpc	r23, r1
    1e92:	51 f0       	breq	.+20     	; 0x1ea8 <_ZN6StringC2EPKc+0x2e>
    1e94:	db 01       	movw	r26, r22
    1e96:	0d 90       	ld	r0, X+
    1e98:	00 20       	and	r0, r0
    1e9a:	e9 f7       	brne	.-6      	; 0x1e96 <_ZN6StringC2EPKc+0x1c>
    1e9c:	11 97       	sbiw	r26, 0x01	; 1
    1e9e:	a6 1b       	sub	r26, r22
    1ea0:	b7 0b       	sbc	r27, r23
    1ea2:	ad 01       	movw	r20, r26
    1ea4:	0e 94 02 0f 	call	0x1e04	; 0x1e04 <_ZN6String4copyEPKcj>
    1ea8:	df 91       	pop	r29
    1eaa:	cf 91       	pop	r28
    1eac:	08 95       	ret

00001eae <_ZN6StringaSEPKc>:
    1eae:	0f 93       	push	r16
    1eb0:	1f 93       	push	r17
    1eb2:	18 2f       	mov	r17, r24
    1eb4:	09 2f       	mov	r16, r25
    1eb6:	61 15       	cp	r22, r1
    1eb8:	71 05       	cpc	r23, r1
    1eba:	59 f0       	breq	.+22     	; 0x1ed2 <_ZN6StringaSEPKc+0x24>
    1ebc:	db 01       	movw	r26, r22
    1ebe:	0d 90       	ld	r0, X+
    1ec0:	00 20       	and	r0, r0
    1ec2:	e9 f7       	brne	.-6      	; 0x1ebe <_ZN6StringaSEPKc+0x10>
    1ec4:	11 97       	sbiw	r26, 0x01	; 1
    1ec6:	a6 1b       	sub	r26, r22
    1ec8:	b7 0b       	sbc	r27, r23
    1eca:	ad 01       	movw	r20, r26
    1ecc:	0e 94 02 0f 	call	0x1e04	; 0x1e04 <_ZN6String4copyEPKcj>
    1ed0:	02 c0       	rjmp	.+4      	; 0x1ed6 <_ZN6StringaSEPKc+0x28>
    1ed2:	0e 94 58 0e 	call	0x1cb0	; 0x1cb0 <_ZN6String10invalidateEv>
    1ed6:	81 2f       	mov	r24, r17
    1ed8:	90 2f       	mov	r25, r16
    1eda:	1f 91       	pop	r17
    1edc:	0f 91       	pop	r16
    1ede:	08 95       	ret

00001ee0 <_ZN6StringC1Emh>:
    1ee0:	ef 92       	push	r14
    1ee2:	ff 92       	push	r15
    1ee4:	0f 93       	push	r16
    1ee6:	1f 93       	push	r17
    1ee8:	df 93       	push	r29
    1eea:	cf 93       	push	r28
    1eec:	cd b7       	in	r28, 0x3d	; 61
    1eee:	de b7       	in	r29, 0x3e	; 62
    1ef0:	a1 97       	sbiw	r28, 0x21	; 33
    1ef2:	0f b6       	in	r0, 0x3f	; 63
    1ef4:	f8 94       	cli
    1ef6:	de bf       	out	0x3e, r29	; 62
    1ef8:	0f be       	out	0x3f, r0	; 63
    1efa:	cd bf       	out	0x3d, r28	; 61
    1efc:	8c 01       	movw	r16, r24
    1efe:	fc 01       	movw	r30, r24
    1f00:	11 82       	std	Z+1, r1	; 0x01
    1f02:	10 82       	st	Z, r1
    1f04:	13 82       	std	Z+3, r1	; 0x03
    1f06:	12 82       	std	Z+2, r1	; 0x02
    1f08:	15 82       	std	Z+5, r1	; 0x05
    1f0a:	14 82       	std	Z+4, r1	; 0x04
    1f0c:	16 82       	std	Z+6, r1	; 0x06
    1f0e:	cb 01       	movw	r24, r22
    1f10:	ba 01       	movw	r22, r20
    1f12:	7e 01       	movw	r14, r28
    1f14:	08 94       	sec
    1f16:	e1 1c       	adc	r14, r1
    1f18:	f1 1c       	adc	r15, r1
    1f1a:	a7 01       	movw	r20, r14
    1f1c:	30 e0       	ldi	r19, 0x00	; 0
    1f1e:	0e 94 6f 1d 	call	0x3ade	; 0x3ade <ultoa>
    1f22:	c8 01       	movw	r24, r16
    1f24:	b7 01       	movw	r22, r14
    1f26:	0e 94 57 0f 	call	0x1eae	; 0x1eae <_ZN6StringaSEPKc>
    1f2a:	a1 96       	adiw	r28, 0x21	; 33
    1f2c:	0f b6       	in	r0, 0x3f	; 63
    1f2e:	f8 94       	cli
    1f30:	de bf       	out	0x3e, r29	; 62
    1f32:	0f be       	out	0x3f, r0	; 63
    1f34:	cd bf       	out	0x3d, r28	; 61
    1f36:	cf 91       	pop	r28
    1f38:	df 91       	pop	r29
    1f3a:	1f 91       	pop	r17
    1f3c:	0f 91       	pop	r16
    1f3e:	ff 90       	pop	r15
    1f40:	ef 90       	pop	r14
    1f42:	08 95       	ret

00001f44 <_ZN6StringC2Emh>:
    1f44:	ef 92       	push	r14
    1f46:	ff 92       	push	r15
    1f48:	0f 93       	push	r16
    1f4a:	1f 93       	push	r17
    1f4c:	df 93       	push	r29
    1f4e:	cf 93       	push	r28
    1f50:	cd b7       	in	r28, 0x3d	; 61
    1f52:	de b7       	in	r29, 0x3e	; 62
    1f54:	a1 97       	sbiw	r28, 0x21	; 33
    1f56:	0f b6       	in	r0, 0x3f	; 63
    1f58:	f8 94       	cli
    1f5a:	de bf       	out	0x3e, r29	; 62
    1f5c:	0f be       	out	0x3f, r0	; 63
    1f5e:	cd bf       	out	0x3d, r28	; 61
    1f60:	8c 01       	movw	r16, r24
    1f62:	fc 01       	movw	r30, r24
    1f64:	11 82       	std	Z+1, r1	; 0x01
    1f66:	10 82       	st	Z, r1
    1f68:	13 82       	std	Z+3, r1	; 0x03
    1f6a:	12 82       	std	Z+2, r1	; 0x02
    1f6c:	15 82       	std	Z+5, r1	; 0x05
    1f6e:	14 82       	std	Z+4, r1	; 0x04
    1f70:	16 82       	std	Z+6, r1	; 0x06
    1f72:	cb 01       	movw	r24, r22
    1f74:	ba 01       	movw	r22, r20
    1f76:	7e 01       	movw	r14, r28
    1f78:	08 94       	sec
    1f7a:	e1 1c       	adc	r14, r1
    1f7c:	f1 1c       	adc	r15, r1
    1f7e:	a7 01       	movw	r20, r14
    1f80:	30 e0       	ldi	r19, 0x00	; 0
    1f82:	0e 94 6f 1d 	call	0x3ade	; 0x3ade <ultoa>
    1f86:	c8 01       	movw	r24, r16
    1f88:	b7 01       	movw	r22, r14
    1f8a:	0e 94 57 0f 	call	0x1eae	; 0x1eae <_ZN6StringaSEPKc>
    1f8e:	a1 96       	adiw	r28, 0x21	; 33
    1f90:	0f b6       	in	r0, 0x3f	; 63
    1f92:	f8 94       	cli
    1f94:	de bf       	out	0x3e, r29	; 62
    1f96:	0f be       	out	0x3f, r0	; 63
    1f98:	cd bf       	out	0x3d, r28	; 61
    1f9a:	cf 91       	pop	r28
    1f9c:	df 91       	pop	r29
    1f9e:	1f 91       	pop	r17
    1fa0:	0f 91       	pop	r16
    1fa2:	ff 90       	pop	r15
    1fa4:	ef 90       	pop	r14
    1fa6:	08 95       	ret

00001fa8 <_ZN6StringC1Elh>:
    1fa8:	ef 92       	push	r14
    1faa:	ff 92       	push	r15
    1fac:	0f 93       	push	r16
    1fae:	1f 93       	push	r17
    1fb0:	df 93       	push	r29
    1fb2:	cf 93       	push	r28
    1fb4:	cd b7       	in	r28, 0x3d	; 61
    1fb6:	de b7       	in	r29, 0x3e	; 62
    1fb8:	a2 97       	sbiw	r28, 0x22	; 34
    1fba:	0f b6       	in	r0, 0x3f	; 63
    1fbc:	f8 94       	cli
    1fbe:	de bf       	out	0x3e, r29	; 62
    1fc0:	0f be       	out	0x3f, r0	; 63
    1fc2:	cd bf       	out	0x3d, r28	; 61
    1fc4:	8c 01       	movw	r16, r24
    1fc6:	fc 01       	movw	r30, r24
    1fc8:	11 82       	std	Z+1, r1	; 0x01
    1fca:	10 82       	st	Z, r1
    1fcc:	13 82       	std	Z+3, r1	; 0x03
    1fce:	12 82       	std	Z+2, r1	; 0x02
    1fd0:	15 82       	std	Z+5, r1	; 0x05
    1fd2:	14 82       	std	Z+4, r1	; 0x04
    1fd4:	16 82       	std	Z+6, r1	; 0x06
    1fd6:	cb 01       	movw	r24, r22
    1fd8:	ba 01       	movw	r22, r20
    1fda:	7e 01       	movw	r14, r28
    1fdc:	08 94       	sec
    1fde:	e1 1c       	adc	r14, r1
    1fe0:	f1 1c       	adc	r15, r1
    1fe2:	a7 01       	movw	r20, r14
    1fe4:	30 e0       	ldi	r19, 0x00	; 0
    1fe6:	0e 94 26 1d 	call	0x3a4c	; 0x3a4c <ltoa>
    1fea:	c8 01       	movw	r24, r16
    1fec:	b7 01       	movw	r22, r14
    1fee:	0e 94 57 0f 	call	0x1eae	; 0x1eae <_ZN6StringaSEPKc>
    1ff2:	a2 96       	adiw	r28, 0x22	; 34
    1ff4:	0f b6       	in	r0, 0x3f	; 63
    1ff6:	f8 94       	cli
    1ff8:	de bf       	out	0x3e, r29	; 62
    1ffa:	0f be       	out	0x3f, r0	; 63
    1ffc:	cd bf       	out	0x3d, r28	; 61
    1ffe:	cf 91       	pop	r28
    2000:	df 91       	pop	r29
    2002:	1f 91       	pop	r17
    2004:	0f 91       	pop	r16
    2006:	ff 90       	pop	r15
    2008:	ef 90       	pop	r14
    200a:	08 95       	ret

0000200c <_ZN6StringC2Elh>:
    200c:	ef 92       	push	r14
    200e:	ff 92       	push	r15
    2010:	0f 93       	push	r16
    2012:	1f 93       	push	r17
    2014:	df 93       	push	r29
    2016:	cf 93       	push	r28
    2018:	cd b7       	in	r28, 0x3d	; 61
    201a:	de b7       	in	r29, 0x3e	; 62
    201c:	a2 97       	sbiw	r28, 0x22	; 34
    201e:	0f b6       	in	r0, 0x3f	; 63
    2020:	f8 94       	cli
    2022:	de bf       	out	0x3e, r29	; 62
    2024:	0f be       	out	0x3f, r0	; 63
    2026:	cd bf       	out	0x3d, r28	; 61
    2028:	8c 01       	movw	r16, r24
    202a:	fc 01       	movw	r30, r24
    202c:	11 82       	std	Z+1, r1	; 0x01
    202e:	10 82       	st	Z, r1
    2030:	13 82       	std	Z+3, r1	; 0x03
    2032:	12 82       	std	Z+2, r1	; 0x02
    2034:	15 82       	std	Z+5, r1	; 0x05
    2036:	14 82       	std	Z+4, r1	; 0x04
    2038:	16 82       	std	Z+6, r1	; 0x06
    203a:	cb 01       	movw	r24, r22
    203c:	ba 01       	movw	r22, r20
    203e:	7e 01       	movw	r14, r28
    2040:	08 94       	sec
    2042:	e1 1c       	adc	r14, r1
    2044:	f1 1c       	adc	r15, r1
    2046:	a7 01       	movw	r20, r14
    2048:	30 e0       	ldi	r19, 0x00	; 0
    204a:	0e 94 26 1d 	call	0x3a4c	; 0x3a4c <ltoa>
    204e:	c8 01       	movw	r24, r16
    2050:	b7 01       	movw	r22, r14
    2052:	0e 94 57 0f 	call	0x1eae	; 0x1eae <_ZN6StringaSEPKc>
    2056:	a2 96       	adiw	r28, 0x22	; 34
    2058:	0f b6       	in	r0, 0x3f	; 63
    205a:	f8 94       	cli
    205c:	de bf       	out	0x3e, r29	; 62
    205e:	0f be       	out	0x3f, r0	; 63
    2060:	cd bf       	out	0x3d, r28	; 61
    2062:	cf 91       	pop	r28
    2064:	df 91       	pop	r29
    2066:	1f 91       	pop	r17
    2068:	0f 91       	pop	r16
    206a:	ff 90       	pop	r15
    206c:	ef 90       	pop	r14
    206e:	08 95       	ret

00002070 <_ZN6StringC1Ejh>:
    2070:	ef 92       	push	r14
    2072:	ff 92       	push	r15
    2074:	0f 93       	push	r16
    2076:	1f 93       	push	r17
    2078:	df 93       	push	r29
    207a:	cf 93       	push	r28
    207c:	cd b7       	in	r28, 0x3d	; 61
    207e:	de b7       	in	r29, 0x3e	; 62
    2080:	61 97       	sbiw	r28, 0x11	; 17
    2082:	0f b6       	in	r0, 0x3f	; 63
    2084:	f8 94       	cli
    2086:	de bf       	out	0x3e, r29	; 62
    2088:	0f be       	out	0x3f, r0	; 63
    208a:	cd bf       	out	0x3d, r28	; 61
    208c:	8c 01       	movw	r16, r24
    208e:	cb 01       	movw	r24, r22
    2090:	f8 01       	movw	r30, r16
    2092:	11 82       	std	Z+1, r1	; 0x01
    2094:	10 82       	st	Z, r1
    2096:	13 82       	std	Z+3, r1	; 0x03
    2098:	12 82       	std	Z+2, r1	; 0x02
    209a:	15 82       	std	Z+5, r1	; 0x05
    209c:	14 82       	std	Z+4, r1	; 0x04
    209e:	16 82       	std	Z+6, r1	; 0x06
    20a0:	7e 01       	movw	r14, r28
    20a2:	08 94       	sec
    20a4:	e1 1c       	adc	r14, r1
    20a6:	f1 1c       	adc	r15, r1
    20a8:	b7 01       	movw	r22, r14
    20aa:	50 e0       	ldi	r21, 0x00	; 0
    20ac:	0e 94 94 1d 	call	0x3b28	; 0x3b28 <utoa>
    20b0:	c8 01       	movw	r24, r16
    20b2:	b7 01       	movw	r22, r14
    20b4:	0e 94 57 0f 	call	0x1eae	; 0x1eae <_ZN6StringaSEPKc>
    20b8:	61 96       	adiw	r28, 0x11	; 17
    20ba:	0f b6       	in	r0, 0x3f	; 63
    20bc:	f8 94       	cli
    20be:	de bf       	out	0x3e, r29	; 62
    20c0:	0f be       	out	0x3f, r0	; 63
    20c2:	cd bf       	out	0x3d, r28	; 61
    20c4:	cf 91       	pop	r28
    20c6:	df 91       	pop	r29
    20c8:	1f 91       	pop	r17
    20ca:	0f 91       	pop	r16
    20cc:	ff 90       	pop	r15
    20ce:	ef 90       	pop	r14
    20d0:	08 95       	ret

000020d2 <_ZN6StringC2Ejh>:
    20d2:	ef 92       	push	r14
    20d4:	ff 92       	push	r15
    20d6:	0f 93       	push	r16
    20d8:	1f 93       	push	r17
    20da:	df 93       	push	r29
    20dc:	cf 93       	push	r28
    20de:	cd b7       	in	r28, 0x3d	; 61
    20e0:	de b7       	in	r29, 0x3e	; 62
    20e2:	61 97       	sbiw	r28, 0x11	; 17
    20e4:	0f b6       	in	r0, 0x3f	; 63
    20e6:	f8 94       	cli
    20e8:	de bf       	out	0x3e, r29	; 62
    20ea:	0f be       	out	0x3f, r0	; 63
    20ec:	cd bf       	out	0x3d, r28	; 61
    20ee:	8c 01       	movw	r16, r24
    20f0:	cb 01       	movw	r24, r22
    20f2:	f8 01       	movw	r30, r16
    20f4:	11 82       	std	Z+1, r1	; 0x01
    20f6:	10 82       	st	Z, r1
    20f8:	13 82       	std	Z+3, r1	; 0x03
    20fa:	12 82       	std	Z+2, r1	; 0x02
    20fc:	15 82       	std	Z+5, r1	; 0x05
    20fe:	14 82       	std	Z+4, r1	; 0x04
    2100:	16 82       	std	Z+6, r1	; 0x06
    2102:	7e 01       	movw	r14, r28
    2104:	08 94       	sec
    2106:	e1 1c       	adc	r14, r1
    2108:	f1 1c       	adc	r15, r1
    210a:	b7 01       	movw	r22, r14
    210c:	50 e0       	ldi	r21, 0x00	; 0
    210e:	0e 94 94 1d 	call	0x3b28	; 0x3b28 <utoa>
    2112:	c8 01       	movw	r24, r16
    2114:	b7 01       	movw	r22, r14
    2116:	0e 94 57 0f 	call	0x1eae	; 0x1eae <_ZN6StringaSEPKc>
    211a:	61 96       	adiw	r28, 0x11	; 17
    211c:	0f b6       	in	r0, 0x3f	; 63
    211e:	f8 94       	cli
    2120:	de bf       	out	0x3e, r29	; 62
    2122:	0f be       	out	0x3f, r0	; 63
    2124:	cd bf       	out	0x3d, r28	; 61
    2126:	cf 91       	pop	r28
    2128:	df 91       	pop	r29
    212a:	1f 91       	pop	r17
    212c:	0f 91       	pop	r16
    212e:	ff 90       	pop	r15
    2130:	ef 90       	pop	r14
    2132:	08 95       	ret

00002134 <_ZN6StringC1Eih>:
    2134:	ef 92       	push	r14
    2136:	ff 92       	push	r15
    2138:	0f 93       	push	r16
    213a:	1f 93       	push	r17
    213c:	df 93       	push	r29
    213e:	cf 93       	push	r28
    2140:	cd b7       	in	r28, 0x3d	; 61
    2142:	de b7       	in	r29, 0x3e	; 62
    2144:	62 97       	sbiw	r28, 0x12	; 18
    2146:	0f b6       	in	r0, 0x3f	; 63
    2148:	f8 94       	cli
    214a:	de bf       	out	0x3e, r29	; 62
    214c:	0f be       	out	0x3f, r0	; 63
    214e:	cd bf       	out	0x3d, r28	; 61
    2150:	8c 01       	movw	r16, r24
    2152:	cb 01       	movw	r24, r22
    2154:	f8 01       	movw	r30, r16
    2156:	11 82       	std	Z+1, r1	; 0x01
    2158:	10 82       	st	Z, r1
    215a:	13 82       	std	Z+3, r1	; 0x03
    215c:	12 82       	std	Z+2, r1	; 0x02
    215e:	15 82       	std	Z+5, r1	; 0x05
    2160:	14 82       	std	Z+4, r1	; 0x04
    2162:	16 82       	std	Z+6, r1	; 0x06
    2164:	7e 01       	movw	r14, r28
    2166:	08 94       	sec
    2168:	e1 1c       	adc	r14, r1
    216a:	f1 1c       	adc	r15, r1
    216c:	b7 01       	movw	r22, r14
    216e:	50 e0       	ldi	r21, 0x00	; 0
    2170:	0e 94 05 1d 	call	0x3a0a	; 0x3a0a <itoa>
    2174:	c8 01       	movw	r24, r16
    2176:	b7 01       	movw	r22, r14
    2178:	0e 94 57 0f 	call	0x1eae	; 0x1eae <_ZN6StringaSEPKc>
    217c:	62 96       	adiw	r28, 0x12	; 18
    217e:	0f b6       	in	r0, 0x3f	; 63
    2180:	f8 94       	cli
    2182:	de bf       	out	0x3e, r29	; 62
    2184:	0f be       	out	0x3f, r0	; 63
    2186:	cd bf       	out	0x3d, r28	; 61
    2188:	cf 91       	pop	r28
    218a:	df 91       	pop	r29
    218c:	1f 91       	pop	r17
    218e:	0f 91       	pop	r16
    2190:	ff 90       	pop	r15
    2192:	ef 90       	pop	r14
    2194:	08 95       	ret

00002196 <_ZN6StringC2Eih>:
    2196:	ef 92       	push	r14
    2198:	ff 92       	push	r15
    219a:	0f 93       	push	r16
    219c:	1f 93       	push	r17
    219e:	df 93       	push	r29
    21a0:	cf 93       	push	r28
    21a2:	cd b7       	in	r28, 0x3d	; 61
    21a4:	de b7       	in	r29, 0x3e	; 62
    21a6:	62 97       	sbiw	r28, 0x12	; 18
    21a8:	0f b6       	in	r0, 0x3f	; 63
    21aa:	f8 94       	cli
    21ac:	de bf       	out	0x3e, r29	; 62
    21ae:	0f be       	out	0x3f, r0	; 63
    21b0:	cd bf       	out	0x3d, r28	; 61
    21b2:	8c 01       	movw	r16, r24
    21b4:	cb 01       	movw	r24, r22
    21b6:	f8 01       	movw	r30, r16
    21b8:	11 82       	std	Z+1, r1	; 0x01
    21ba:	10 82       	st	Z, r1
    21bc:	13 82       	std	Z+3, r1	; 0x03
    21be:	12 82       	std	Z+2, r1	; 0x02
    21c0:	15 82       	std	Z+5, r1	; 0x05
    21c2:	14 82       	std	Z+4, r1	; 0x04
    21c4:	16 82       	std	Z+6, r1	; 0x06
    21c6:	7e 01       	movw	r14, r28
    21c8:	08 94       	sec
    21ca:	e1 1c       	adc	r14, r1
    21cc:	f1 1c       	adc	r15, r1
    21ce:	b7 01       	movw	r22, r14
    21d0:	50 e0       	ldi	r21, 0x00	; 0
    21d2:	0e 94 05 1d 	call	0x3a0a	; 0x3a0a <itoa>
    21d6:	c8 01       	movw	r24, r16
    21d8:	b7 01       	movw	r22, r14
    21da:	0e 94 57 0f 	call	0x1eae	; 0x1eae <_ZN6StringaSEPKc>
    21de:	62 96       	adiw	r28, 0x12	; 18
    21e0:	0f b6       	in	r0, 0x3f	; 63
    21e2:	f8 94       	cli
    21e4:	de bf       	out	0x3e, r29	; 62
    21e6:	0f be       	out	0x3f, r0	; 63
    21e8:	cd bf       	out	0x3d, r28	; 61
    21ea:	cf 91       	pop	r28
    21ec:	df 91       	pop	r29
    21ee:	1f 91       	pop	r17
    21f0:	0f 91       	pop	r16
    21f2:	ff 90       	pop	r15
    21f4:	ef 90       	pop	r14
    21f6:	08 95       	ret

000021f8 <_ZN6StringC1Ehh>:
    21f8:	ef 92       	push	r14
    21fa:	ff 92       	push	r15
    21fc:	0f 93       	push	r16
    21fe:	1f 93       	push	r17
    2200:	df 93       	push	r29
    2202:	cf 93       	push	r28
    2204:	cd b7       	in	r28, 0x3d	; 61
    2206:	de b7       	in	r29, 0x3e	; 62
    2208:	29 97       	sbiw	r28, 0x09	; 9
    220a:	0f b6       	in	r0, 0x3f	; 63
    220c:	f8 94       	cli
    220e:	de bf       	out	0x3e, r29	; 62
    2210:	0f be       	out	0x3f, r0	; 63
    2212:	cd bf       	out	0x3d, r28	; 61
    2214:	8c 01       	movw	r16, r24
    2216:	86 2f       	mov	r24, r22
    2218:	f8 01       	movw	r30, r16
    221a:	11 82       	std	Z+1, r1	; 0x01
    221c:	10 82       	st	Z, r1
    221e:	13 82       	std	Z+3, r1	; 0x03
    2220:	12 82       	std	Z+2, r1	; 0x02
    2222:	15 82       	std	Z+5, r1	; 0x05
    2224:	14 82       	std	Z+4, r1	; 0x04
    2226:	16 82       	std	Z+6, r1	; 0x06
    2228:	90 e0       	ldi	r25, 0x00	; 0
    222a:	7e 01       	movw	r14, r28
    222c:	08 94       	sec
    222e:	e1 1c       	adc	r14, r1
    2230:	f1 1c       	adc	r15, r1
    2232:	b7 01       	movw	r22, r14
    2234:	50 e0       	ldi	r21, 0x00	; 0
    2236:	0e 94 94 1d 	call	0x3b28	; 0x3b28 <utoa>
    223a:	c8 01       	movw	r24, r16
    223c:	b7 01       	movw	r22, r14
    223e:	0e 94 57 0f 	call	0x1eae	; 0x1eae <_ZN6StringaSEPKc>
    2242:	29 96       	adiw	r28, 0x09	; 9
    2244:	0f b6       	in	r0, 0x3f	; 63
    2246:	f8 94       	cli
    2248:	de bf       	out	0x3e, r29	; 62
    224a:	0f be       	out	0x3f, r0	; 63
    224c:	cd bf       	out	0x3d, r28	; 61
    224e:	cf 91       	pop	r28
    2250:	df 91       	pop	r29
    2252:	1f 91       	pop	r17
    2254:	0f 91       	pop	r16
    2256:	ff 90       	pop	r15
    2258:	ef 90       	pop	r14
    225a:	08 95       	ret

0000225c <_ZN6StringC2Ehh>:
    225c:	ef 92       	push	r14
    225e:	ff 92       	push	r15
    2260:	0f 93       	push	r16
    2262:	1f 93       	push	r17
    2264:	df 93       	push	r29
    2266:	cf 93       	push	r28
    2268:	cd b7       	in	r28, 0x3d	; 61
    226a:	de b7       	in	r29, 0x3e	; 62
    226c:	29 97       	sbiw	r28, 0x09	; 9
    226e:	0f b6       	in	r0, 0x3f	; 63
    2270:	f8 94       	cli
    2272:	de bf       	out	0x3e, r29	; 62
    2274:	0f be       	out	0x3f, r0	; 63
    2276:	cd bf       	out	0x3d, r28	; 61
    2278:	8c 01       	movw	r16, r24
    227a:	86 2f       	mov	r24, r22
    227c:	f8 01       	movw	r30, r16
    227e:	11 82       	std	Z+1, r1	; 0x01
    2280:	10 82       	st	Z, r1
    2282:	13 82       	std	Z+3, r1	; 0x03
    2284:	12 82       	std	Z+2, r1	; 0x02
    2286:	15 82       	std	Z+5, r1	; 0x05
    2288:	14 82       	std	Z+4, r1	; 0x04
    228a:	16 82       	std	Z+6, r1	; 0x06
    228c:	90 e0       	ldi	r25, 0x00	; 0
    228e:	7e 01       	movw	r14, r28
    2290:	08 94       	sec
    2292:	e1 1c       	adc	r14, r1
    2294:	f1 1c       	adc	r15, r1
    2296:	b7 01       	movw	r22, r14
    2298:	50 e0       	ldi	r21, 0x00	; 0
    229a:	0e 94 94 1d 	call	0x3b28	; 0x3b28 <utoa>
    229e:	c8 01       	movw	r24, r16
    22a0:	b7 01       	movw	r22, r14
    22a2:	0e 94 57 0f 	call	0x1eae	; 0x1eae <_ZN6StringaSEPKc>
    22a6:	29 96       	adiw	r28, 0x09	; 9
    22a8:	0f b6       	in	r0, 0x3f	; 63
    22aa:	f8 94       	cli
    22ac:	de bf       	out	0x3e, r29	; 62
    22ae:	0f be       	out	0x3f, r0	; 63
    22b0:	cd bf       	out	0x3d, r28	; 61
    22b2:	cf 91       	pop	r28
    22b4:	df 91       	pop	r29
    22b6:	1f 91       	pop	r17
    22b8:	0f 91       	pop	r16
    22ba:	ff 90       	pop	r15
    22bc:	ef 90       	pop	r14
    22be:	08 95       	ret

000022c0 <_ZN6StringC1Ec>:
    22c0:	df 93       	push	r29
    22c2:	cf 93       	push	r28
    22c4:	00 d0       	rcall	.+0      	; 0x22c6 <_ZN6StringC1Ec+0x6>
    22c6:	cd b7       	in	r28, 0x3d	; 61
    22c8:	de b7       	in	r29, 0x3e	; 62
    22ca:	fc 01       	movw	r30, r24
    22cc:	11 82       	std	Z+1, r1	; 0x01
    22ce:	10 82       	st	Z, r1
    22d0:	13 82       	std	Z+3, r1	; 0x03
    22d2:	12 82       	std	Z+2, r1	; 0x02
    22d4:	15 82       	std	Z+5, r1	; 0x05
    22d6:	14 82       	std	Z+4, r1	; 0x04
    22d8:	16 82       	std	Z+6, r1	; 0x06
    22da:	69 83       	std	Y+1, r22	; 0x01
    22dc:	1a 82       	std	Y+2, r1	; 0x02
    22de:	be 01       	movw	r22, r28
    22e0:	6f 5f       	subi	r22, 0xFF	; 255
    22e2:	7f 4f       	sbci	r23, 0xFF	; 255
    22e4:	0e 94 57 0f 	call	0x1eae	; 0x1eae <_ZN6StringaSEPKc>
    22e8:	0f 90       	pop	r0
    22ea:	0f 90       	pop	r0
    22ec:	cf 91       	pop	r28
    22ee:	df 91       	pop	r29
    22f0:	08 95       	ret

000022f2 <_ZN6StringC2Ec>:
    22f2:	df 93       	push	r29
    22f4:	cf 93       	push	r28
    22f6:	00 d0       	rcall	.+0      	; 0x22f8 <_ZN6StringC2Ec+0x6>
    22f8:	cd b7       	in	r28, 0x3d	; 61
    22fa:	de b7       	in	r29, 0x3e	; 62
    22fc:	fc 01       	movw	r30, r24
    22fe:	11 82       	std	Z+1, r1	; 0x01
    2300:	10 82       	st	Z, r1
    2302:	13 82       	std	Z+3, r1	; 0x03
    2304:	12 82       	std	Z+2, r1	; 0x02
    2306:	15 82       	std	Z+5, r1	; 0x05
    2308:	14 82       	std	Z+4, r1	; 0x04
    230a:	16 82       	std	Z+6, r1	; 0x06
    230c:	69 83       	std	Y+1, r22	; 0x01
    230e:	1a 82       	std	Y+2, r1	; 0x02
    2310:	be 01       	movw	r22, r28
    2312:	6f 5f       	subi	r22, 0xFF	; 255
    2314:	7f 4f       	sbci	r23, 0xFF	; 255
    2316:	0e 94 57 0f 	call	0x1eae	; 0x1eae <_ZN6StringaSEPKc>
    231a:	0f 90       	pop	r0
    231c:	0f 90       	pop	r0
    231e:	cf 91       	pop	r28
    2320:	df 91       	pop	r29
    2322:	08 95       	ret

00002324 <_ZNK6String9substringEjj>:
    2324:	bf 92       	push	r11
    2326:	cf 92       	push	r12
    2328:	df 92       	push	r13
    232a:	ef 92       	push	r14
    232c:	ff 92       	push	r15
    232e:	0f 93       	push	r16
    2330:	1f 93       	push	r17
    2332:	cf 93       	push	r28
    2334:	df 93       	push	r29
    2336:	08 2f       	mov	r16, r24
    2338:	b9 2e       	mov	r11, r25
    233a:	6b 01       	movw	r12, r22
    233c:	7a 01       	movw	r14, r20
    233e:	e9 01       	movw	r28, r18
    2340:	24 17       	cp	r18, r20
    2342:	35 07       	cpc	r19, r21
    2344:	10 f4       	brcc	.+4      	; 0x234a <_ZNK6String9substringEjj+0x26>
    2346:	ea 01       	movw	r28, r20
    2348:	79 01       	movw	r14, r18
    234a:	80 2f       	mov	r24, r16
    234c:	9b 2d       	mov	r25, r11
    234e:	68 e3       	ldi	r22, 0x38	; 56
    2350:	71 e0       	ldi	r23, 0x01	; 1
    2352:	0e 94 23 0f 	call	0x1e46	; 0x1e46 <_ZN6StringC1EPKc>
    2356:	d6 01       	movw	r26, r12
    2358:	14 96       	adiw	r26, 0x04	; 4
    235a:	8d 91       	ld	r24, X+
    235c:	9c 91       	ld	r25, X
    235e:	15 97       	sbiw	r26, 0x05	; 5
    2360:	8e 15       	cp	r24, r14
    2362:	9f 05       	cpc	r25, r15
    2364:	d0 f0       	brcs	.+52     	; 0x239a <_ZNK6String9substringEjj+0x76>
    2366:	8c 17       	cp	r24, r28
    2368:	9d 07       	cpc	r25, r29
    236a:	08 f4       	brcc	.+2      	; 0x236e <_ZNK6String9substringEjj+0x4a>
    236c:	ec 01       	movw	r28, r24
    236e:	d6 01       	movw	r26, r12
    2370:	ed 91       	ld	r30, X+
    2372:	fc 91       	ld	r31, X
    2374:	11 97       	sbiw	r26, 0x01	; 1
    2376:	ec 0f       	add	r30, r28
    2378:	fd 1f       	adc	r31, r29
    237a:	10 81       	ld	r17, Z
    237c:	10 82       	st	Z, r1
    237e:	6d 91       	ld	r22, X+
    2380:	7c 91       	ld	r23, X
    2382:	6e 0d       	add	r22, r14
    2384:	7f 1d       	adc	r23, r15
    2386:	80 2f       	mov	r24, r16
    2388:	9b 2d       	mov	r25, r11
    238a:	0e 94 57 0f 	call	0x1eae	; 0x1eae <_ZN6StringaSEPKc>
    238e:	d6 01       	movw	r26, r12
    2390:	ed 91       	ld	r30, X+
    2392:	fc 91       	ld	r31, X
    2394:	ec 0f       	add	r30, r28
    2396:	fd 1f       	adc	r31, r29
    2398:	10 83       	st	Z, r17
    239a:	80 2f       	mov	r24, r16
    239c:	9b 2d       	mov	r25, r11
    239e:	df 91       	pop	r29
    23a0:	cf 91       	pop	r28
    23a2:	1f 91       	pop	r17
    23a4:	0f 91       	pop	r16
    23a6:	ff 90       	pop	r15
    23a8:	ef 90       	pop	r14
    23aa:	df 90       	pop	r13
    23ac:	cf 90       	pop	r12
    23ae:	bf 90       	pop	r11
    23b0:	08 95       	ret

000023b2 <_ZNK6String9substringEj>:
    23b2:	0f 93       	push	r16
    23b4:	1f 93       	push	r17
    23b6:	8c 01       	movw	r16, r24
    23b8:	fb 01       	movw	r30, r22
    23ba:	24 81       	ldd	r18, Z+4	; 0x04
    23bc:	35 81       	ldd	r19, Z+5	; 0x05
    23be:	0e 94 92 11 	call	0x2324	; 0x2324 <_ZNK6String9substringEjj>
    23c2:	c8 01       	movw	r24, r16
    23c4:	1f 91       	pop	r17
    23c6:	0f 91       	pop	r16
    23c8:	08 95       	ret

000023ca <_ZN6StringaSERKS_>:
    23ca:	cf 93       	push	r28
    23cc:	df 93       	push	r29
    23ce:	ec 01       	movw	r28, r24
    23d0:	fb 01       	movw	r30, r22
    23d2:	86 17       	cp	r24, r22
    23d4:	97 07       	cpc	r25, r23
    23d6:	61 f0       	breq	.+24     	; 0x23f0 <_ZN6StringaSERKS_+0x26>
    23d8:	60 81       	ld	r22, Z
    23da:	71 81       	ldd	r23, Z+1	; 0x01
    23dc:	61 15       	cp	r22, r1
    23de:	71 05       	cpc	r23, r1
    23e0:	29 f0       	breq	.+10     	; 0x23ec <_ZN6StringaSERKS_+0x22>
    23e2:	44 81       	ldd	r20, Z+4	; 0x04
    23e4:	55 81       	ldd	r21, Z+5	; 0x05
    23e6:	0e 94 02 0f 	call	0x1e04	; 0x1e04 <_ZN6String4copyEPKcj>
    23ea:	02 c0       	rjmp	.+4      	; 0x23f0 <_ZN6StringaSERKS_+0x26>
    23ec:	0e 94 58 0e 	call	0x1cb0	; 0x1cb0 <_ZN6String10invalidateEv>
    23f0:	ce 01       	movw	r24, r28
    23f2:	df 91       	pop	r29
    23f4:	cf 91       	pop	r28
    23f6:	08 95       	ret

000023f8 <_ZN6StringC1ERKS_>:
    23f8:	fc 01       	movw	r30, r24
    23fa:	11 82       	std	Z+1, r1	; 0x01
    23fc:	10 82       	st	Z, r1
    23fe:	13 82       	std	Z+3, r1	; 0x03
    2400:	12 82       	std	Z+2, r1	; 0x02
    2402:	15 82       	std	Z+5, r1	; 0x05
    2404:	14 82       	std	Z+4, r1	; 0x04
    2406:	16 82       	std	Z+6, r1	; 0x06
    2408:	0e 94 e5 11 	call	0x23ca	; 0x23ca <_ZN6StringaSERKS_>
    240c:	08 95       	ret

0000240e <_ZN6StringC2ERKS_>:
    240e:	fc 01       	movw	r30, r24
    2410:	11 82       	std	Z+1, r1	; 0x01
    2412:	10 82       	st	Z, r1
    2414:	13 82       	std	Z+3, r1	; 0x03
    2416:	12 82       	std	Z+2, r1	; 0x02
    2418:	15 82       	std	Z+5, r1	; 0x05
    241a:	14 82       	std	Z+4, r1	; 0x04
    241c:	16 82       	std	Z+6, r1	; 0x06
    241e:	0e 94 e5 11 	call	0x23ca	; 0x23ca <_ZN6StringaSERKS_>
    2422:	08 95       	ret

00002424 <_ZN6StringD1Ev>:
    2424:	fc 01       	movw	r30, r24
    2426:	80 81       	ld	r24, Z
    2428:	91 81       	ldd	r25, Z+1	; 0x01
    242a:	0e 94 e7 1a 	call	0x35ce	; 0x35ce <free>
    242e:	08 95       	ret

00002430 <_ZN6StringD2Ev>:
    2430:	fc 01       	movw	r30, r24
    2432:	80 81       	ld	r24, Z
    2434:	91 81       	ldd	r25, Z+1	; 0x01
    2436:	0e 94 e7 1a 	call	0x35ce	; 0x35ce <free>
    243a:	08 95       	ret

0000243c <__fixunssfsi>:
    243c:	ef 92       	push	r14
    243e:	ff 92       	push	r15
    2440:	0f 93       	push	r16
    2442:	1f 93       	push	r17
    2444:	7b 01       	movw	r14, r22
    2446:	8c 01       	movw	r16, r24
    2448:	20 e0       	ldi	r18, 0x00	; 0
    244a:	30 e0       	ldi	r19, 0x00	; 0
    244c:	40 e0       	ldi	r20, 0x00	; 0
    244e:	5f e4       	ldi	r21, 0x4F	; 79
    2450:	0e 94 ca 15 	call	0x2b94	; 0x2b94 <__gesf2>
    2454:	88 23       	and	r24, r24
    2456:	8c f0       	brlt	.+34     	; 0x247a <__fixunssfsi+0x3e>
    2458:	c8 01       	movw	r24, r16
    245a:	b7 01       	movw	r22, r14
    245c:	20 e0       	ldi	r18, 0x00	; 0
    245e:	30 e0       	ldi	r19, 0x00	; 0
    2460:	40 e0       	ldi	r20, 0x00	; 0
    2462:	5f e4       	ldi	r21, 0x4F	; 79
    2464:	0e 94 96 13 	call	0x272c	; 0x272c <__subsf3>
    2468:	0e 94 e3 16 	call	0x2dc6	; 0x2dc6 <__fixsfsi>
    246c:	9b 01       	movw	r18, r22
    246e:	ac 01       	movw	r20, r24
    2470:	20 50       	subi	r18, 0x00	; 0
    2472:	30 40       	sbci	r19, 0x00	; 0
    2474:	40 40       	sbci	r20, 0x00	; 0
    2476:	50 48       	sbci	r21, 0x80	; 128
    2478:	06 c0       	rjmp	.+12     	; 0x2486 <__fixunssfsi+0x4a>
    247a:	c8 01       	movw	r24, r16
    247c:	b7 01       	movw	r22, r14
    247e:	0e 94 e3 16 	call	0x2dc6	; 0x2dc6 <__fixsfsi>
    2482:	9b 01       	movw	r18, r22
    2484:	ac 01       	movw	r20, r24
    2486:	b9 01       	movw	r22, r18
    2488:	ca 01       	movw	r24, r20
    248a:	1f 91       	pop	r17
    248c:	0f 91       	pop	r16
    248e:	ff 90       	pop	r15
    2490:	ef 90       	pop	r14
    2492:	08 95       	ret

00002494 <_fpadd_parts>:
    2494:	a0 e0       	ldi	r26, 0x00	; 0
    2496:	b0 e0       	ldi	r27, 0x00	; 0
    2498:	e0 e5       	ldi	r30, 0x50	; 80
    249a:	f2 e1       	ldi	r31, 0x12	; 18
    249c:	0c 94 0d 1a 	jmp	0x341a	; 0x341a <__prologue_saves__>
    24a0:	dc 01       	movw	r26, r24
    24a2:	2b 01       	movw	r4, r22
    24a4:	fa 01       	movw	r30, r20
    24a6:	9c 91       	ld	r25, X
    24a8:	92 30       	cpi	r25, 0x02	; 2
    24aa:	08 f4       	brcc	.+2      	; 0x24ae <_fpadd_parts+0x1a>
    24ac:	39 c1       	rjmp	.+626    	; 0x2720 <_fpadd_parts+0x28c>
    24ae:	eb 01       	movw	r28, r22
    24b0:	88 81       	ld	r24, Y
    24b2:	82 30       	cpi	r24, 0x02	; 2
    24b4:	08 f4       	brcc	.+2      	; 0x24b8 <_fpadd_parts+0x24>
    24b6:	33 c1       	rjmp	.+614    	; 0x271e <_fpadd_parts+0x28a>
    24b8:	94 30       	cpi	r25, 0x04	; 4
    24ba:	69 f4       	brne	.+26     	; 0x24d6 <_fpadd_parts+0x42>
    24bc:	84 30       	cpi	r24, 0x04	; 4
    24be:	09 f0       	breq	.+2      	; 0x24c2 <_fpadd_parts+0x2e>
    24c0:	2f c1       	rjmp	.+606    	; 0x2720 <_fpadd_parts+0x28c>
    24c2:	11 96       	adiw	r26, 0x01	; 1
    24c4:	9c 91       	ld	r25, X
    24c6:	11 97       	sbiw	r26, 0x01	; 1
    24c8:	89 81       	ldd	r24, Y+1	; 0x01
    24ca:	98 17       	cp	r25, r24
    24cc:	09 f4       	brne	.+2      	; 0x24d0 <_fpadd_parts+0x3c>
    24ce:	28 c1       	rjmp	.+592    	; 0x2720 <_fpadd_parts+0x28c>
    24d0:	a9 e3       	ldi	r26, 0x39	; 57
    24d2:	b1 e0       	ldi	r27, 0x01	; 1
    24d4:	25 c1       	rjmp	.+586    	; 0x2720 <_fpadd_parts+0x28c>
    24d6:	84 30       	cpi	r24, 0x04	; 4
    24d8:	09 f4       	brne	.+2      	; 0x24dc <_fpadd_parts+0x48>
    24da:	21 c1       	rjmp	.+578    	; 0x271e <_fpadd_parts+0x28a>
    24dc:	82 30       	cpi	r24, 0x02	; 2
    24de:	a9 f4       	brne	.+42     	; 0x250a <_fpadd_parts+0x76>
    24e0:	92 30       	cpi	r25, 0x02	; 2
    24e2:	09 f0       	breq	.+2      	; 0x24e6 <_fpadd_parts+0x52>
    24e4:	1d c1       	rjmp	.+570    	; 0x2720 <_fpadd_parts+0x28c>
    24e6:	9a 01       	movw	r18, r20
    24e8:	ad 01       	movw	r20, r26
    24ea:	88 e0       	ldi	r24, 0x08	; 8
    24ec:	ea 01       	movw	r28, r20
    24ee:	09 90       	ld	r0, Y+
    24f0:	ae 01       	movw	r20, r28
    24f2:	e9 01       	movw	r28, r18
    24f4:	09 92       	st	Y+, r0
    24f6:	9e 01       	movw	r18, r28
    24f8:	81 50       	subi	r24, 0x01	; 1
    24fa:	c1 f7       	brne	.-16     	; 0x24ec <_fpadd_parts+0x58>
    24fc:	e2 01       	movw	r28, r4
    24fe:	89 81       	ldd	r24, Y+1	; 0x01
    2500:	11 96       	adiw	r26, 0x01	; 1
    2502:	9c 91       	ld	r25, X
    2504:	89 23       	and	r24, r25
    2506:	81 83       	std	Z+1, r24	; 0x01
    2508:	08 c1       	rjmp	.+528    	; 0x271a <_fpadd_parts+0x286>
    250a:	92 30       	cpi	r25, 0x02	; 2
    250c:	09 f4       	brne	.+2      	; 0x2510 <_fpadd_parts+0x7c>
    250e:	07 c1       	rjmp	.+526    	; 0x271e <_fpadd_parts+0x28a>
    2510:	12 96       	adiw	r26, 0x02	; 2
    2512:	2d 90       	ld	r2, X+
    2514:	3c 90       	ld	r3, X
    2516:	13 97       	sbiw	r26, 0x03	; 3
    2518:	eb 01       	movw	r28, r22
    251a:	8a 81       	ldd	r24, Y+2	; 0x02
    251c:	9b 81       	ldd	r25, Y+3	; 0x03
    251e:	14 96       	adiw	r26, 0x04	; 4
    2520:	ad 90       	ld	r10, X+
    2522:	bd 90       	ld	r11, X+
    2524:	cd 90       	ld	r12, X+
    2526:	dc 90       	ld	r13, X
    2528:	17 97       	sbiw	r26, 0x07	; 7
    252a:	ec 80       	ldd	r14, Y+4	; 0x04
    252c:	fd 80       	ldd	r15, Y+5	; 0x05
    252e:	0e 81       	ldd	r16, Y+6	; 0x06
    2530:	1f 81       	ldd	r17, Y+7	; 0x07
    2532:	91 01       	movw	r18, r2
    2534:	28 1b       	sub	r18, r24
    2536:	39 0b       	sbc	r19, r25
    2538:	b9 01       	movw	r22, r18
    253a:	37 ff       	sbrs	r19, 7
    253c:	04 c0       	rjmp	.+8      	; 0x2546 <_fpadd_parts+0xb2>
    253e:	66 27       	eor	r22, r22
    2540:	77 27       	eor	r23, r23
    2542:	62 1b       	sub	r22, r18
    2544:	73 0b       	sbc	r23, r19
    2546:	60 32       	cpi	r22, 0x20	; 32
    2548:	71 05       	cpc	r23, r1
    254a:	0c f0       	brlt	.+2      	; 0x254e <_fpadd_parts+0xba>
    254c:	61 c0       	rjmp	.+194    	; 0x2610 <_fpadd_parts+0x17c>
    254e:	12 16       	cp	r1, r18
    2550:	13 06       	cpc	r1, r19
    2552:	6c f5       	brge	.+90     	; 0x25ae <_fpadd_parts+0x11a>
    2554:	37 01       	movw	r6, r14
    2556:	48 01       	movw	r8, r16
    2558:	06 2e       	mov	r0, r22
    255a:	04 c0       	rjmp	.+8      	; 0x2564 <_fpadd_parts+0xd0>
    255c:	96 94       	lsr	r9
    255e:	87 94       	ror	r8
    2560:	77 94       	ror	r7
    2562:	67 94       	ror	r6
    2564:	0a 94       	dec	r0
    2566:	d2 f7       	brpl	.-12     	; 0x255c <_fpadd_parts+0xc8>
    2568:	21 e0       	ldi	r18, 0x01	; 1
    256a:	30 e0       	ldi	r19, 0x00	; 0
    256c:	40 e0       	ldi	r20, 0x00	; 0
    256e:	50 e0       	ldi	r21, 0x00	; 0
    2570:	04 c0       	rjmp	.+8      	; 0x257a <_fpadd_parts+0xe6>
    2572:	22 0f       	add	r18, r18
    2574:	33 1f       	adc	r19, r19
    2576:	44 1f       	adc	r20, r20
    2578:	55 1f       	adc	r21, r21
    257a:	6a 95       	dec	r22
    257c:	d2 f7       	brpl	.-12     	; 0x2572 <_fpadd_parts+0xde>
    257e:	21 50       	subi	r18, 0x01	; 1
    2580:	30 40       	sbci	r19, 0x00	; 0
    2582:	40 40       	sbci	r20, 0x00	; 0
    2584:	50 40       	sbci	r21, 0x00	; 0
    2586:	2e 21       	and	r18, r14
    2588:	3f 21       	and	r19, r15
    258a:	40 23       	and	r20, r16
    258c:	51 23       	and	r21, r17
    258e:	21 15       	cp	r18, r1
    2590:	31 05       	cpc	r19, r1
    2592:	41 05       	cpc	r20, r1
    2594:	51 05       	cpc	r21, r1
    2596:	21 f0       	breq	.+8      	; 0x25a0 <_fpadd_parts+0x10c>
    2598:	21 e0       	ldi	r18, 0x01	; 1
    259a:	30 e0       	ldi	r19, 0x00	; 0
    259c:	40 e0       	ldi	r20, 0x00	; 0
    259e:	50 e0       	ldi	r21, 0x00	; 0
    25a0:	79 01       	movw	r14, r18
    25a2:	8a 01       	movw	r16, r20
    25a4:	e6 28       	or	r14, r6
    25a6:	f7 28       	or	r15, r7
    25a8:	08 29       	or	r16, r8
    25aa:	19 29       	or	r17, r9
    25ac:	3c c0       	rjmp	.+120    	; 0x2626 <_fpadd_parts+0x192>
    25ae:	23 2b       	or	r18, r19
    25b0:	d1 f1       	breq	.+116    	; 0x2626 <_fpadd_parts+0x192>
    25b2:	26 0e       	add	r2, r22
    25b4:	37 1e       	adc	r3, r23
    25b6:	35 01       	movw	r6, r10
    25b8:	46 01       	movw	r8, r12
    25ba:	06 2e       	mov	r0, r22
    25bc:	04 c0       	rjmp	.+8      	; 0x25c6 <_fpadd_parts+0x132>
    25be:	96 94       	lsr	r9
    25c0:	87 94       	ror	r8
    25c2:	77 94       	ror	r7
    25c4:	67 94       	ror	r6
    25c6:	0a 94       	dec	r0
    25c8:	d2 f7       	brpl	.-12     	; 0x25be <_fpadd_parts+0x12a>
    25ca:	21 e0       	ldi	r18, 0x01	; 1
    25cc:	30 e0       	ldi	r19, 0x00	; 0
    25ce:	40 e0       	ldi	r20, 0x00	; 0
    25d0:	50 e0       	ldi	r21, 0x00	; 0
    25d2:	04 c0       	rjmp	.+8      	; 0x25dc <_fpadd_parts+0x148>
    25d4:	22 0f       	add	r18, r18
    25d6:	33 1f       	adc	r19, r19
    25d8:	44 1f       	adc	r20, r20
    25da:	55 1f       	adc	r21, r21
    25dc:	6a 95       	dec	r22
    25de:	d2 f7       	brpl	.-12     	; 0x25d4 <_fpadd_parts+0x140>
    25e0:	21 50       	subi	r18, 0x01	; 1
    25e2:	30 40       	sbci	r19, 0x00	; 0
    25e4:	40 40       	sbci	r20, 0x00	; 0
    25e6:	50 40       	sbci	r21, 0x00	; 0
    25e8:	2a 21       	and	r18, r10
    25ea:	3b 21       	and	r19, r11
    25ec:	4c 21       	and	r20, r12
    25ee:	5d 21       	and	r21, r13
    25f0:	21 15       	cp	r18, r1
    25f2:	31 05       	cpc	r19, r1
    25f4:	41 05       	cpc	r20, r1
    25f6:	51 05       	cpc	r21, r1
    25f8:	21 f0       	breq	.+8      	; 0x2602 <_fpadd_parts+0x16e>
    25fa:	21 e0       	ldi	r18, 0x01	; 1
    25fc:	30 e0       	ldi	r19, 0x00	; 0
    25fe:	40 e0       	ldi	r20, 0x00	; 0
    2600:	50 e0       	ldi	r21, 0x00	; 0
    2602:	59 01       	movw	r10, r18
    2604:	6a 01       	movw	r12, r20
    2606:	a6 28       	or	r10, r6
    2608:	b7 28       	or	r11, r7
    260a:	c8 28       	or	r12, r8
    260c:	d9 28       	or	r13, r9
    260e:	0b c0       	rjmp	.+22     	; 0x2626 <_fpadd_parts+0x192>
    2610:	82 15       	cp	r24, r2
    2612:	93 05       	cpc	r25, r3
    2614:	2c f0       	brlt	.+10     	; 0x2620 <_fpadd_parts+0x18c>
    2616:	1c 01       	movw	r2, r24
    2618:	aa 24       	eor	r10, r10
    261a:	bb 24       	eor	r11, r11
    261c:	65 01       	movw	r12, r10
    261e:	03 c0       	rjmp	.+6      	; 0x2626 <_fpadd_parts+0x192>
    2620:	ee 24       	eor	r14, r14
    2622:	ff 24       	eor	r15, r15
    2624:	87 01       	movw	r16, r14
    2626:	11 96       	adiw	r26, 0x01	; 1
    2628:	9c 91       	ld	r25, X
    262a:	d2 01       	movw	r26, r4
    262c:	11 96       	adiw	r26, 0x01	; 1
    262e:	8c 91       	ld	r24, X
    2630:	98 17       	cp	r25, r24
    2632:	09 f4       	brne	.+2      	; 0x2636 <_fpadd_parts+0x1a2>
    2634:	45 c0       	rjmp	.+138    	; 0x26c0 <_fpadd_parts+0x22c>
    2636:	99 23       	and	r25, r25
    2638:	39 f0       	breq	.+14     	; 0x2648 <_fpadd_parts+0x1b4>
    263a:	a8 01       	movw	r20, r16
    263c:	97 01       	movw	r18, r14
    263e:	2a 19       	sub	r18, r10
    2640:	3b 09       	sbc	r19, r11
    2642:	4c 09       	sbc	r20, r12
    2644:	5d 09       	sbc	r21, r13
    2646:	06 c0       	rjmp	.+12     	; 0x2654 <_fpadd_parts+0x1c0>
    2648:	a6 01       	movw	r20, r12
    264a:	95 01       	movw	r18, r10
    264c:	2e 19       	sub	r18, r14
    264e:	3f 09       	sbc	r19, r15
    2650:	40 0b       	sbc	r20, r16
    2652:	51 0b       	sbc	r21, r17
    2654:	57 fd       	sbrc	r21, 7
    2656:	08 c0       	rjmp	.+16     	; 0x2668 <_fpadd_parts+0x1d4>
    2658:	11 82       	std	Z+1, r1	; 0x01
    265a:	33 82       	std	Z+3, r3	; 0x03
    265c:	22 82       	std	Z+2, r2	; 0x02
    265e:	24 83       	std	Z+4, r18	; 0x04
    2660:	35 83       	std	Z+5, r19	; 0x05
    2662:	46 83       	std	Z+6, r20	; 0x06
    2664:	57 83       	std	Z+7, r21	; 0x07
    2666:	1d c0       	rjmp	.+58     	; 0x26a2 <_fpadd_parts+0x20e>
    2668:	81 e0       	ldi	r24, 0x01	; 1
    266a:	81 83       	std	Z+1, r24	; 0x01
    266c:	33 82       	std	Z+3, r3	; 0x03
    266e:	22 82       	std	Z+2, r2	; 0x02
    2670:	88 27       	eor	r24, r24
    2672:	99 27       	eor	r25, r25
    2674:	dc 01       	movw	r26, r24
    2676:	82 1b       	sub	r24, r18
    2678:	93 0b       	sbc	r25, r19
    267a:	a4 0b       	sbc	r26, r20
    267c:	b5 0b       	sbc	r27, r21
    267e:	84 83       	std	Z+4, r24	; 0x04
    2680:	95 83       	std	Z+5, r25	; 0x05
    2682:	a6 83       	std	Z+6, r26	; 0x06
    2684:	b7 83       	std	Z+7, r27	; 0x07
    2686:	0d c0       	rjmp	.+26     	; 0x26a2 <_fpadd_parts+0x20e>
    2688:	22 0f       	add	r18, r18
    268a:	33 1f       	adc	r19, r19
    268c:	44 1f       	adc	r20, r20
    268e:	55 1f       	adc	r21, r21
    2690:	24 83       	std	Z+4, r18	; 0x04
    2692:	35 83       	std	Z+5, r19	; 0x05
    2694:	46 83       	std	Z+6, r20	; 0x06
    2696:	57 83       	std	Z+7, r21	; 0x07
    2698:	82 81       	ldd	r24, Z+2	; 0x02
    269a:	93 81       	ldd	r25, Z+3	; 0x03
    269c:	01 97       	sbiw	r24, 0x01	; 1
    269e:	93 83       	std	Z+3, r25	; 0x03
    26a0:	82 83       	std	Z+2, r24	; 0x02
    26a2:	24 81       	ldd	r18, Z+4	; 0x04
    26a4:	35 81       	ldd	r19, Z+5	; 0x05
    26a6:	46 81       	ldd	r20, Z+6	; 0x06
    26a8:	57 81       	ldd	r21, Z+7	; 0x07
    26aa:	da 01       	movw	r26, r20
    26ac:	c9 01       	movw	r24, r18
    26ae:	01 97       	sbiw	r24, 0x01	; 1
    26b0:	a1 09       	sbc	r26, r1
    26b2:	b1 09       	sbc	r27, r1
    26b4:	8f 5f       	subi	r24, 0xFF	; 255
    26b6:	9f 4f       	sbci	r25, 0xFF	; 255
    26b8:	af 4f       	sbci	r26, 0xFF	; 255
    26ba:	bf 43       	sbci	r27, 0x3F	; 63
    26bc:	28 f3       	brcs	.-54     	; 0x2688 <_fpadd_parts+0x1f4>
    26be:	0b c0       	rjmp	.+22     	; 0x26d6 <_fpadd_parts+0x242>
    26c0:	91 83       	std	Z+1, r25	; 0x01
    26c2:	33 82       	std	Z+3, r3	; 0x03
    26c4:	22 82       	std	Z+2, r2	; 0x02
    26c6:	ea 0c       	add	r14, r10
    26c8:	fb 1c       	adc	r15, r11
    26ca:	0c 1d       	adc	r16, r12
    26cc:	1d 1d       	adc	r17, r13
    26ce:	e4 82       	std	Z+4, r14	; 0x04
    26d0:	f5 82       	std	Z+5, r15	; 0x05
    26d2:	06 83       	std	Z+6, r16	; 0x06
    26d4:	17 83       	std	Z+7, r17	; 0x07
    26d6:	83 e0       	ldi	r24, 0x03	; 3
    26d8:	80 83       	st	Z, r24
    26da:	24 81       	ldd	r18, Z+4	; 0x04
    26dc:	35 81       	ldd	r19, Z+5	; 0x05
    26de:	46 81       	ldd	r20, Z+6	; 0x06
    26e0:	57 81       	ldd	r21, Z+7	; 0x07
    26e2:	57 ff       	sbrs	r21, 7
    26e4:	1a c0       	rjmp	.+52     	; 0x271a <_fpadd_parts+0x286>
    26e6:	c9 01       	movw	r24, r18
    26e8:	aa 27       	eor	r26, r26
    26ea:	97 fd       	sbrc	r25, 7
    26ec:	a0 95       	com	r26
    26ee:	ba 2f       	mov	r27, r26
    26f0:	81 70       	andi	r24, 0x01	; 1
    26f2:	90 70       	andi	r25, 0x00	; 0
    26f4:	a0 70       	andi	r26, 0x00	; 0
    26f6:	b0 70       	andi	r27, 0x00	; 0
    26f8:	56 95       	lsr	r21
    26fa:	47 95       	ror	r20
    26fc:	37 95       	ror	r19
    26fe:	27 95       	ror	r18
    2700:	82 2b       	or	r24, r18
    2702:	93 2b       	or	r25, r19
    2704:	a4 2b       	or	r26, r20
    2706:	b5 2b       	or	r27, r21
    2708:	84 83       	std	Z+4, r24	; 0x04
    270a:	95 83       	std	Z+5, r25	; 0x05
    270c:	a6 83       	std	Z+6, r26	; 0x06
    270e:	b7 83       	std	Z+7, r27	; 0x07
    2710:	82 81       	ldd	r24, Z+2	; 0x02
    2712:	93 81       	ldd	r25, Z+3	; 0x03
    2714:	01 96       	adiw	r24, 0x01	; 1
    2716:	93 83       	std	Z+3, r25	; 0x03
    2718:	82 83       	std	Z+2, r24	; 0x02
    271a:	df 01       	movw	r26, r30
    271c:	01 c0       	rjmp	.+2      	; 0x2720 <_fpadd_parts+0x28c>
    271e:	d2 01       	movw	r26, r4
    2720:	cd 01       	movw	r24, r26
    2722:	cd b7       	in	r28, 0x3d	; 61
    2724:	de b7       	in	r29, 0x3e	; 62
    2726:	e2 e1       	ldi	r30, 0x12	; 18
    2728:	0c 94 29 1a 	jmp	0x3452	; 0x3452 <__epilogue_restores__>

0000272c <__subsf3>:
    272c:	a0 e2       	ldi	r26, 0x20	; 32
    272e:	b0 e0       	ldi	r27, 0x00	; 0
    2730:	ec e9       	ldi	r30, 0x9C	; 156
    2732:	f3 e1       	ldi	r31, 0x13	; 19
    2734:	0c 94 19 1a 	jmp	0x3432	; 0x3432 <__prologue_saves__+0x18>
    2738:	69 83       	std	Y+1, r22	; 0x01
    273a:	7a 83       	std	Y+2, r23	; 0x02
    273c:	8b 83       	std	Y+3, r24	; 0x03
    273e:	9c 83       	std	Y+4, r25	; 0x04
    2740:	2d 83       	std	Y+5, r18	; 0x05
    2742:	3e 83       	std	Y+6, r19	; 0x06
    2744:	4f 83       	std	Y+7, r20	; 0x07
    2746:	58 87       	std	Y+8, r21	; 0x08
    2748:	e9 e0       	ldi	r30, 0x09	; 9
    274a:	ee 2e       	mov	r14, r30
    274c:	f1 2c       	mov	r15, r1
    274e:	ec 0e       	add	r14, r28
    2750:	fd 1e       	adc	r15, r29
    2752:	ce 01       	movw	r24, r28
    2754:	01 96       	adiw	r24, 0x01	; 1
    2756:	b7 01       	movw	r22, r14
    2758:	0e 94 d4 18 	call	0x31a8	; 0x31a8 <__unpack_f>
    275c:	8e 01       	movw	r16, r28
    275e:	0f 5e       	subi	r16, 0xEF	; 239
    2760:	1f 4f       	sbci	r17, 0xFF	; 255
    2762:	ce 01       	movw	r24, r28
    2764:	05 96       	adiw	r24, 0x05	; 5
    2766:	b8 01       	movw	r22, r16
    2768:	0e 94 d4 18 	call	0x31a8	; 0x31a8 <__unpack_f>
    276c:	8a 89       	ldd	r24, Y+18	; 0x12
    276e:	91 e0       	ldi	r25, 0x01	; 1
    2770:	89 27       	eor	r24, r25
    2772:	8a 8b       	std	Y+18, r24	; 0x12
    2774:	c7 01       	movw	r24, r14
    2776:	b8 01       	movw	r22, r16
    2778:	ae 01       	movw	r20, r28
    277a:	47 5e       	subi	r20, 0xE7	; 231
    277c:	5f 4f       	sbci	r21, 0xFF	; 255
    277e:	0e 94 4a 12 	call	0x2494	; 0x2494 <_fpadd_parts>
    2782:	0e 94 ff 17 	call	0x2ffe	; 0x2ffe <__pack_f>
    2786:	a0 96       	adiw	r28, 0x20	; 32
    2788:	e6 e0       	ldi	r30, 0x06	; 6
    278a:	0c 94 35 1a 	jmp	0x346a	; 0x346a <__epilogue_restores__+0x18>

0000278e <__addsf3>:
    278e:	a0 e2       	ldi	r26, 0x20	; 32
    2790:	b0 e0       	ldi	r27, 0x00	; 0
    2792:	ed ec       	ldi	r30, 0xCD	; 205
    2794:	f3 e1       	ldi	r31, 0x13	; 19
    2796:	0c 94 19 1a 	jmp	0x3432	; 0x3432 <__prologue_saves__+0x18>
    279a:	69 83       	std	Y+1, r22	; 0x01
    279c:	7a 83       	std	Y+2, r23	; 0x02
    279e:	8b 83       	std	Y+3, r24	; 0x03
    27a0:	9c 83       	std	Y+4, r25	; 0x04
    27a2:	2d 83       	std	Y+5, r18	; 0x05
    27a4:	3e 83       	std	Y+6, r19	; 0x06
    27a6:	4f 83       	std	Y+7, r20	; 0x07
    27a8:	58 87       	std	Y+8, r21	; 0x08
    27aa:	f9 e0       	ldi	r31, 0x09	; 9
    27ac:	ef 2e       	mov	r14, r31
    27ae:	f1 2c       	mov	r15, r1
    27b0:	ec 0e       	add	r14, r28
    27b2:	fd 1e       	adc	r15, r29
    27b4:	ce 01       	movw	r24, r28
    27b6:	01 96       	adiw	r24, 0x01	; 1
    27b8:	b7 01       	movw	r22, r14
    27ba:	0e 94 d4 18 	call	0x31a8	; 0x31a8 <__unpack_f>
    27be:	8e 01       	movw	r16, r28
    27c0:	0f 5e       	subi	r16, 0xEF	; 239
    27c2:	1f 4f       	sbci	r17, 0xFF	; 255
    27c4:	ce 01       	movw	r24, r28
    27c6:	05 96       	adiw	r24, 0x05	; 5
    27c8:	b8 01       	movw	r22, r16
    27ca:	0e 94 d4 18 	call	0x31a8	; 0x31a8 <__unpack_f>
    27ce:	c7 01       	movw	r24, r14
    27d0:	b8 01       	movw	r22, r16
    27d2:	ae 01       	movw	r20, r28
    27d4:	47 5e       	subi	r20, 0xE7	; 231
    27d6:	5f 4f       	sbci	r21, 0xFF	; 255
    27d8:	0e 94 4a 12 	call	0x2494	; 0x2494 <_fpadd_parts>
    27dc:	0e 94 ff 17 	call	0x2ffe	; 0x2ffe <__pack_f>
    27e0:	a0 96       	adiw	r28, 0x20	; 32
    27e2:	e6 e0       	ldi	r30, 0x06	; 6
    27e4:	0c 94 35 1a 	jmp	0x346a	; 0x346a <__epilogue_restores__+0x18>

000027e8 <__mulsf3>:
    27e8:	a0 e2       	ldi	r26, 0x20	; 32
    27ea:	b0 e0       	ldi	r27, 0x00	; 0
    27ec:	ea ef       	ldi	r30, 0xFA	; 250
    27ee:	f3 e1       	ldi	r31, 0x13	; 19
    27f0:	0c 94 0d 1a 	jmp	0x341a	; 0x341a <__prologue_saves__>
    27f4:	69 83       	std	Y+1, r22	; 0x01
    27f6:	7a 83       	std	Y+2, r23	; 0x02
    27f8:	8b 83       	std	Y+3, r24	; 0x03
    27fa:	9c 83       	std	Y+4, r25	; 0x04
    27fc:	2d 83       	std	Y+5, r18	; 0x05
    27fe:	3e 83       	std	Y+6, r19	; 0x06
    2800:	4f 83       	std	Y+7, r20	; 0x07
    2802:	58 87       	std	Y+8, r21	; 0x08
    2804:	ce 01       	movw	r24, r28
    2806:	01 96       	adiw	r24, 0x01	; 1
    2808:	be 01       	movw	r22, r28
    280a:	67 5f       	subi	r22, 0xF7	; 247
    280c:	7f 4f       	sbci	r23, 0xFF	; 255
    280e:	0e 94 d4 18 	call	0x31a8	; 0x31a8 <__unpack_f>
    2812:	ce 01       	movw	r24, r28
    2814:	05 96       	adiw	r24, 0x05	; 5
    2816:	be 01       	movw	r22, r28
    2818:	6f 5e       	subi	r22, 0xEF	; 239
    281a:	7f 4f       	sbci	r23, 0xFF	; 255
    281c:	0e 94 d4 18 	call	0x31a8	; 0x31a8 <__unpack_f>
    2820:	99 85       	ldd	r25, Y+9	; 0x09
    2822:	92 30       	cpi	r25, 0x02	; 2
    2824:	88 f0       	brcs	.+34     	; 0x2848 <__mulsf3+0x60>
    2826:	89 89       	ldd	r24, Y+17	; 0x11
    2828:	82 30       	cpi	r24, 0x02	; 2
    282a:	c8 f0       	brcs	.+50     	; 0x285e <__mulsf3+0x76>
    282c:	94 30       	cpi	r25, 0x04	; 4
    282e:	19 f4       	brne	.+6      	; 0x2836 <__mulsf3+0x4e>
    2830:	82 30       	cpi	r24, 0x02	; 2
    2832:	51 f4       	brne	.+20     	; 0x2848 <__mulsf3+0x60>
    2834:	04 c0       	rjmp	.+8      	; 0x283e <__mulsf3+0x56>
    2836:	84 30       	cpi	r24, 0x04	; 4
    2838:	29 f4       	brne	.+10     	; 0x2844 <__mulsf3+0x5c>
    283a:	92 30       	cpi	r25, 0x02	; 2
    283c:	81 f4       	brne	.+32     	; 0x285e <__mulsf3+0x76>
    283e:	89 e3       	ldi	r24, 0x39	; 57
    2840:	91 e0       	ldi	r25, 0x01	; 1
    2842:	c6 c0       	rjmp	.+396    	; 0x29d0 <__mulsf3+0x1e8>
    2844:	92 30       	cpi	r25, 0x02	; 2
    2846:	49 f4       	brne	.+18     	; 0x285a <__mulsf3+0x72>
    2848:	20 e0       	ldi	r18, 0x00	; 0
    284a:	9a 85       	ldd	r25, Y+10	; 0x0a
    284c:	8a 89       	ldd	r24, Y+18	; 0x12
    284e:	98 13       	cpse	r25, r24
    2850:	21 e0       	ldi	r18, 0x01	; 1
    2852:	2a 87       	std	Y+10, r18	; 0x0a
    2854:	ce 01       	movw	r24, r28
    2856:	09 96       	adiw	r24, 0x09	; 9
    2858:	bb c0       	rjmp	.+374    	; 0x29d0 <__mulsf3+0x1e8>
    285a:	82 30       	cpi	r24, 0x02	; 2
    285c:	49 f4       	brne	.+18     	; 0x2870 <__mulsf3+0x88>
    285e:	20 e0       	ldi	r18, 0x00	; 0
    2860:	9a 85       	ldd	r25, Y+10	; 0x0a
    2862:	8a 89       	ldd	r24, Y+18	; 0x12
    2864:	98 13       	cpse	r25, r24
    2866:	21 e0       	ldi	r18, 0x01	; 1
    2868:	2a 8b       	std	Y+18, r18	; 0x12
    286a:	ce 01       	movw	r24, r28
    286c:	41 96       	adiw	r24, 0x11	; 17
    286e:	b0 c0       	rjmp	.+352    	; 0x29d0 <__mulsf3+0x1e8>
    2870:	2d 84       	ldd	r2, Y+13	; 0x0d
    2872:	3e 84       	ldd	r3, Y+14	; 0x0e
    2874:	4f 84       	ldd	r4, Y+15	; 0x0f
    2876:	58 88       	ldd	r5, Y+16	; 0x10
    2878:	6d 88       	ldd	r6, Y+21	; 0x15
    287a:	7e 88       	ldd	r7, Y+22	; 0x16
    287c:	8f 88       	ldd	r8, Y+23	; 0x17
    287e:	98 8c       	ldd	r9, Y+24	; 0x18
    2880:	ee 24       	eor	r14, r14
    2882:	ff 24       	eor	r15, r15
    2884:	87 01       	movw	r16, r14
    2886:	aa 24       	eor	r10, r10
    2888:	bb 24       	eor	r11, r11
    288a:	65 01       	movw	r12, r10
    288c:	40 e0       	ldi	r20, 0x00	; 0
    288e:	50 e0       	ldi	r21, 0x00	; 0
    2890:	60 e0       	ldi	r22, 0x00	; 0
    2892:	70 e0       	ldi	r23, 0x00	; 0
    2894:	e0 e0       	ldi	r30, 0x00	; 0
    2896:	f0 e0       	ldi	r31, 0x00	; 0
    2898:	c1 01       	movw	r24, r2
    289a:	81 70       	andi	r24, 0x01	; 1
    289c:	90 70       	andi	r25, 0x00	; 0
    289e:	89 2b       	or	r24, r25
    28a0:	e9 f0       	breq	.+58     	; 0x28dc <__mulsf3+0xf4>
    28a2:	e6 0c       	add	r14, r6
    28a4:	f7 1c       	adc	r15, r7
    28a6:	08 1d       	adc	r16, r8
    28a8:	19 1d       	adc	r17, r9
    28aa:	9a 01       	movw	r18, r20
    28ac:	ab 01       	movw	r20, r22
    28ae:	2a 0d       	add	r18, r10
    28b0:	3b 1d       	adc	r19, r11
    28b2:	4c 1d       	adc	r20, r12
    28b4:	5d 1d       	adc	r21, r13
    28b6:	80 e0       	ldi	r24, 0x00	; 0
    28b8:	90 e0       	ldi	r25, 0x00	; 0
    28ba:	a0 e0       	ldi	r26, 0x00	; 0
    28bc:	b0 e0       	ldi	r27, 0x00	; 0
    28be:	e6 14       	cp	r14, r6
    28c0:	f7 04       	cpc	r15, r7
    28c2:	08 05       	cpc	r16, r8
    28c4:	19 05       	cpc	r17, r9
    28c6:	20 f4       	brcc	.+8      	; 0x28d0 <__mulsf3+0xe8>
    28c8:	81 e0       	ldi	r24, 0x01	; 1
    28ca:	90 e0       	ldi	r25, 0x00	; 0
    28cc:	a0 e0       	ldi	r26, 0x00	; 0
    28ce:	b0 e0       	ldi	r27, 0x00	; 0
    28d0:	ba 01       	movw	r22, r20
    28d2:	a9 01       	movw	r20, r18
    28d4:	48 0f       	add	r20, r24
    28d6:	59 1f       	adc	r21, r25
    28d8:	6a 1f       	adc	r22, r26
    28da:	7b 1f       	adc	r23, r27
    28dc:	aa 0c       	add	r10, r10
    28de:	bb 1c       	adc	r11, r11
    28e0:	cc 1c       	adc	r12, r12
    28e2:	dd 1c       	adc	r13, r13
    28e4:	97 fe       	sbrs	r9, 7
    28e6:	08 c0       	rjmp	.+16     	; 0x28f8 <__mulsf3+0x110>
    28e8:	81 e0       	ldi	r24, 0x01	; 1
    28ea:	90 e0       	ldi	r25, 0x00	; 0
    28ec:	a0 e0       	ldi	r26, 0x00	; 0
    28ee:	b0 e0       	ldi	r27, 0x00	; 0
    28f0:	a8 2a       	or	r10, r24
    28f2:	b9 2a       	or	r11, r25
    28f4:	ca 2a       	or	r12, r26
    28f6:	db 2a       	or	r13, r27
    28f8:	31 96       	adiw	r30, 0x01	; 1
    28fa:	e0 32       	cpi	r30, 0x20	; 32
    28fc:	f1 05       	cpc	r31, r1
    28fe:	49 f0       	breq	.+18     	; 0x2912 <__mulsf3+0x12a>
    2900:	66 0c       	add	r6, r6
    2902:	77 1c       	adc	r7, r7
    2904:	88 1c       	adc	r8, r8
    2906:	99 1c       	adc	r9, r9
    2908:	56 94       	lsr	r5
    290a:	47 94       	ror	r4
    290c:	37 94       	ror	r3
    290e:	27 94       	ror	r2
    2910:	c3 cf       	rjmp	.-122    	; 0x2898 <__mulsf3+0xb0>
    2912:	fa 85       	ldd	r31, Y+10	; 0x0a
    2914:	ea 89       	ldd	r30, Y+18	; 0x12
    2916:	2b 89       	ldd	r18, Y+19	; 0x13
    2918:	3c 89       	ldd	r19, Y+20	; 0x14
    291a:	8b 85       	ldd	r24, Y+11	; 0x0b
    291c:	9c 85       	ldd	r25, Y+12	; 0x0c
    291e:	28 0f       	add	r18, r24
    2920:	39 1f       	adc	r19, r25
    2922:	2e 5f       	subi	r18, 0xFE	; 254
    2924:	3f 4f       	sbci	r19, 0xFF	; 255
    2926:	17 c0       	rjmp	.+46     	; 0x2956 <__mulsf3+0x16e>
    2928:	ca 01       	movw	r24, r20
    292a:	81 70       	andi	r24, 0x01	; 1
    292c:	90 70       	andi	r25, 0x00	; 0
    292e:	89 2b       	or	r24, r25
    2930:	61 f0       	breq	.+24     	; 0x294a <__mulsf3+0x162>
    2932:	16 95       	lsr	r17
    2934:	07 95       	ror	r16
    2936:	f7 94       	ror	r15
    2938:	e7 94       	ror	r14
    293a:	80 e0       	ldi	r24, 0x00	; 0
    293c:	90 e0       	ldi	r25, 0x00	; 0
    293e:	a0 e0       	ldi	r26, 0x00	; 0
    2940:	b0 e8       	ldi	r27, 0x80	; 128
    2942:	e8 2a       	or	r14, r24
    2944:	f9 2a       	or	r15, r25
    2946:	0a 2b       	or	r16, r26
    2948:	1b 2b       	or	r17, r27
    294a:	76 95       	lsr	r23
    294c:	67 95       	ror	r22
    294e:	57 95       	ror	r21
    2950:	47 95       	ror	r20
    2952:	2f 5f       	subi	r18, 0xFF	; 255
    2954:	3f 4f       	sbci	r19, 0xFF	; 255
    2956:	77 fd       	sbrc	r23, 7
    2958:	e7 cf       	rjmp	.-50     	; 0x2928 <__mulsf3+0x140>
    295a:	0c c0       	rjmp	.+24     	; 0x2974 <__mulsf3+0x18c>
    295c:	44 0f       	add	r20, r20
    295e:	55 1f       	adc	r21, r21
    2960:	66 1f       	adc	r22, r22
    2962:	77 1f       	adc	r23, r23
    2964:	17 fd       	sbrc	r17, 7
    2966:	41 60       	ori	r20, 0x01	; 1
    2968:	ee 0c       	add	r14, r14
    296a:	ff 1c       	adc	r15, r15
    296c:	00 1f       	adc	r16, r16
    296e:	11 1f       	adc	r17, r17
    2970:	21 50       	subi	r18, 0x01	; 1
    2972:	30 40       	sbci	r19, 0x00	; 0
    2974:	40 30       	cpi	r20, 0x00	; 0
    2976:	90 e0       	ldi	r25, 0x00	; 0
    2978:	59 07       	cpc	r21, r25
    297a:	90 e0       	ldi	r25, 0x00	; 0
    297c:	69 07       	cpc	r22, r25
    297e:	90 e4       	ldi	r25, 0x40	; 64
    2980:	79 07       	cpc	r23, r25
    2982:	60 f3       	brcs	.-40     	; 0x295c <__mulsf3+0x174>
    2984:	2b 8f       	std	Y+27, r18	; 0x1b
    2986:	3c 8f       	std	Y+28, r19	; 0x1c
    2988:	db 01       	movw	r26, r22
    298a:	ca 01       	movw	r24, r20
    298c:	8f 77       	andi	r24, 0x7F	; 127
    298e:	90 70       	andi	r25, 0x00	; 0
    2990:	a0 70       	andi	r26, 0x00	; 0
    2992:	b0 70       	andi	r27, 0x00	; 0
    2994:	80 34       	cpi	r24, 0x40	; 64
    2996:	91 05       	cpc	r25, r1
    2998:	a1 05       	cpc	r26, r1
    299a:	b1 05       	cpc	r27, r1
    299c:	61 f4       	brne	.+24     	; 0x29b6 <__mulsf3+0x1ce>
    299e:	47 fd       	sbrc	r20, 7
    29a0:	0a c0       	rjmp	.+20     	; 0x29b6 <__mulsf3+0x1ce>
    29a2:	e1 14       	cp	r14, r1
    29a4:	f1 04       	cpc	r15, r1
    29a6:	01 05       	cpc	r16, r1
    29a8:	11 05       	cpc	r17, r1
    29aa:	29 f0       	breq	.+10     	; 0x29b6 <__mulsf3+0x1ce>
    29ac:	40 5c       	subi	r20, 0xC0	; 192
    29ae:	5f 4f       	sbci	r21, 0xFF	; 255
    29b0:	6f 4f       	sbci	r22, 0xFF	; 255
    29b2:	7f 4f       	sbci	r23, 0xFF	; 255
    29b4:	40 78       	andi	r20, 0x80	; 128
    29b6:	1a 8e       	std	Y+26, r1	; 0x1a
    29b8:	fe 17       	cp	r31, r30
    29ba:	11 f0       	breq	.+4      	; 0x29c0 <__mulsf3+0x1d8>
    29bc:	81 e0       	ldi	r24, 0x01	; 1
    29be:	8a 8f       	std	Y+26, r24	; 0x1a
    29c0:	4d 8f       	std	Y+29, r20	; 0x1d
    29c2:	5e 8f       	std	Y+30, r21	; 0x1e
    29c4:	6f 8f       	std	Y+31, r22	; 0x1f
    29c6:	78 a3       	std	Y+32, r23	; 0x20
    29c8:	83 e0       	ldi	r24, 0x03	; 3
    29ca:	89 8f       	std	Y+25, r24	; 0x19
    29cc:	ce 01       	movw	r24, r28
    29ce:	49 96       	adiw	r24, 0x19	; 25
    29d0:	0e 94 ff 17 	call	0x2ffe	; 0x2ffe <__pack_f>
    29d4:	a0 96       	adiw	r28, 0x20	; 32
    29d6:	e2 e1       	ldi	r30, 0x12	; 18
    29d8:	0c 94 29 1a 	jmp	0x3452	; 0x3452 <__epilogue_restores__>

000029dc <__divsf3>:
    29dc:	a8 e1       	ldi	r26, 0x18	; 24
    29de:	b0 e0       	ldi	r27, 0x00	; 0
    29e0:	e4 ef       	ldi	r30, 0xF4	; 244
    29e2:	f4 e1       	ldi	r31, 0x14	; 20
    29e4:	0c 94 15 1a 	jmp	0x342a	; 0x342a <__prologue_saves__+0x10>
    29e8:	69 83       	std	Y+1, r22	; 0x01
    29ea:	7a 83       	std	Y+2, r23	; 0x02
    29ec:	8b 83       	std	Y+3, r24	; 0x03
    29ee:	9c 83       	std	Y+4, r25	; 0x04
    29f0:	2d 83       	std	Y+5, r18	; 0x05
    29f2:	3e 83       	std	Y+6, r19	; 0x06
    29f4:	4f 83       	std	Y+7, r20	; 0x07
    29f6:	58 87       	std	Y+8, r21	; 0x08
    29f8:	b9 e0       	ldi	r27, 0x09	; 9
    29fa:	eb 2e       	mov	r14, r27
    29fc:	f1 2c       	mov	r15, r1
    29fe:	ec 0e       	add	r14, r28
    2a00:	fd 1e       	adc	r15, r29
    2a02:	ce 01       	movw	r24, r28
    2a04:	01 96       	adiw	r24, 0x01	; 1
    2a06:	b7 01       	movw	r22, r14
    2a08:	0e 94 d4 18 	call	0x31a8	; 0x31a8 <__unpack_f>
    2a0c:	8e 01       	movw	r16, r28
    2a0e:	0f 5e       	subi	r16, 0xEF	; 239
    2a10:	1f 4f       	sbci	r17, 0xFF	; 255
    2a12:	ce 01       	movw	r24, r28
    2a14:	05 96       	adiw	r24, 0x05	; 5
    2a16:	b8 01       	movw	r22, r16
    2a18:	0e 94 d4 18 	call	0x31a8	; 0x31a8 <__unpack_f>
    2a1c:	29 85       	ldd	r18, Y+9	; 0x09
    2a1e:	22 30       	cpi	r18, 0x02	; 2
    2a20:	08 f4       	brcc	.+2      	; 0x2a24 <__divsf3+0x48>
    2a22:	7e c0       	rjmp	.+252    	; 0x2b20 <__divsf3+0x144>
    2a24:	39 89       	ldd	r19, Y+17	; 0x11
    2a26:	32 30       	cpi	r19, 0x02	; 2
    2a28:	10 f4       	brcc	.+4      	; 0x2a2e <__divsf3+0x52>
    2a2a:	b8 01       	movw	r22, r16
    2a2c:	7c c0       	rjmp	.+248    	; 0x2b26 <__divsf3+0x14a>
    2a2e:	8a 85       	ldd	r24, Y+10	; 0x0a
    2a30:	9a 89       	ldd	r25, Y+18	; 0x12
    2a32:	89 27       	eor	r24, r25
    2a34:	8a 87       	std	Y+10, r24	; 0x0a
    2a36:	24 30       	cpi	r18, 0x04	; 4
    2a38:	11 f0       	breq	.+4      	; 0x2a3e <__divsf3+0x62>
    2a3a:	22 30       	cpi	r18, 0x02	; 2
    2a3c:	31 f4       	brne	.+12     	; 0x2a4a <__divsf3+0x6e>
    2a3e:	23 17       	cp	r18, r19
    2a40:	09 f0       	breq	.+2      	; 0x2a44 <__divsf3+0x68>
    2a42:	6e c0       	rjmp	.+220    	; 0x2b20 <__divsf3+0x144>
    2a44:	69 e3       	ldi	r22, 0x39	; 57
    2a46:	71 e0       	ldi	r23, 0x01	; 1
    2a48:	6e c0       	rjmp	.+220    	; 0x2b26 <__divsf3+0x14a>
    2a4a:	34 30       	cpi	r19, 0x04	; 4
    2a4c:	39 f4       	brne	.+14     	; 0x2a5c <__divsf3+0x80>
    2a4e:	1d 86       	std	Y+13, r1	; 0x0d
    2a50:	1e 86       	std	Y+14, r1	; 0x0e
    2a52:	1f 86       	std	Y+15, r1	; 0x0f
    2a54:	18 8a       	std	Y+16, r1	; 0x10
    2a56:	1c 86       	std	Y+12, r1	; 0x0c
    2a58:	1b 86       	std	Y+11, r1	; 0x0b
    2a5a:	04 c0       	rjmp	.+8      	; 0x2a64 <__divsf3+0x88>
    2a5c:	32 30       	cpi	r19, 0x02	; 2
    2a5e:	21 f4       	brne	.+8      	; 0x2a68 <__divsf3+0x8c>
    2a60:	84 e0       	ldi	r24, 0x04	; 4
    2a62:	89 87       	std	Y+9, r24	; 0x09
    2a64:	b7 01       	movw	r22, r14
    2a66:	5f c0       	rjmp	.+190    	; 0x2b26 <__divsf3+0x14a>
    2a68:	2b 85       	ldd	r18, Y+11	; 0x0b
    2a6a:	3c 85       	ldd	r19, Y+12	; 0x0c
    2a6c:	8b 89       	ldd	r24, Y+19	; 0x13
    2a6e:	9c 89       	ldd	r25, Y+20	; 0x14
    2a70:	28 1b       	sub	r18, r24
    2a72:	39 0b       	sbc	r19, r25
    2a74:	3c 87       	std	Y+12, r19	; 0x0c
    2a76:	2b 87       	std	Y+11, r18	; 0x0b
    2a78:	ed 84       	ldd	r14, Y+13	; 0x0d
    2a7a:	fe 84       	ldd	r15, Y+14	; 0x0e
    2a7c:	0f 85       	ldd	r16, Y+15	; 0x0f
    2a7e:	18 89       	ldd	r17, Y+16	; 0x10
    2a80:	ad 88       	ldd	r10, Y+21	; 0x15
    2a82:	be 88       	ldd	r11, Y+22	; 0x16
    2a84:	cf 88       	ldd	r12, Y+23	; 0x17
    2a86:	d8 8c       	ldd	r13, Y+24	; 0x18
    2a88:	ea 14       	cp	r14, r10
    2a8a:	fb 04       	cpc	r15, r11
    2a8c:	0c 05       	cpc	r16, r12
    2a8e:	1d 05       	cpc	r17, r13
    2a90:	40 f4       	brcc	.+16     	; 0x2aa2 <__divsf3+0xc6>
    2a92:	ee 0c       	add	r14, r14
    2a94:	ff 1c       	adc	r15, r15
    2a96:	00 1f       	adc	r16, r16
    2a98:	11 1f       	adc	r17, r17
    2a9a:	21 50       	subi	r18, 0x01	; 1
    2a9c:	30 40       	sbci	r19, 0x00	; 0
    2a9e:	3c 87       	std	Y+12, r19	; 0x0c
    2aa0:	2b 87       	std	Y+11, r18	; 0x0b
    2aa2:	20 e0       	ldi	r18, 0x00	; 0
    2aa4:	30 e0       	ldi	r19, 0x00	; 0
    2aa6:	40 e0       	ldi	r20, 0x00	; 0
    2aa8:	50 e0       	ldi	r21, 0x00	; 0
    2aaa:	80 e0       	ldi	r24, 0x00	; 0
    2aac:	90 e0       	ldi	r25, 0x00	; 0
    2aae:	a0 e0       	ldi	r26, 0x00	; 0
    2ab0:	b0 e4       	ldi	r27, 0x40	; 64
    2ab2:	60 e0       	ldi	r22, 0x00	; 0
    2ab4:	70 e0       	ldi	r23, 0x00	; 0
    2ab6:	ea 14       	cp	r14, r10
    2ab8:	fb 04       	cpc	r15, r11
    2aba:	0c 05       	cpc	r16, r12
    2abc:	1d 05       	cpc	r17, r13
    2abe:	40 f0       	brcs	.+16     	; 0x2ad0 <__divsf3+0xf4>
    2ac0:	28 2b       	or	r18, r24
    2ac2:	39 2b       	or	r19, r25
    2ac4:	4a 2b       	or	r20, r26
    2ac6:	5b 2b       	or	r21, r27
    2ac8:	ea 18       	sub	r14, r10
    2aca:	fb 08       	sbc	r15, r11
    2acc:	0c 09       	sbc	r16, r12
    2ace:	1d 09       	sbc	r17, r13
    2ad0:	b6 95       	lsr	r27
    2ad2:	a7 95       	ror	r26
    2ad4:	97 95       	ror	r25
    2ad6:	87 95       	ror	r24
    2ad8:	ee 0c       	add	r14, r14
    2ada:	ff 1c       	adc	r15, r15
    2adc:	00 1f       	adc	r16, r16
    2ade:	11 1f       	adc	r17, r17
    2ae0:	6f 5f       	subi	r22, 0xFF	; 255
    2ae2:	7f 4f       	sbci	r23, 0xFF	; 255
    2ae4:	6f 31       	cpi	r22, 0x1F	; 31
    2ae6:	71 05       	cpc	r23, r1
    2ae8:	31 f7       	brne	.-52     	; 0x2ab6 <__divsf3+0xda>
    2aea:	da 01       	movw	r26, r20
    2aec:	c9 01       	movw	r24, r18
    2aee:	8f 77       	andi	r24, 0x7F	; 127
    2af0:	90 70       	andi	r25, 0x00	; 0
    2af2:	a0 70       	andi	r26, 0x00	; 0
    2af4:	b0 70       	andi	r27, 0x00	; 0
    2af6:	80 34       	cpi	r24, 0x40	; 64
    2af8:	91 05       	cpc	r25, r1
    2afa:	a1 05       	cpc	r26, r1
    2afc:	b1 05       	cpc	r27, r1
    2afe:	61 f4       	brne	.+24     	; 0x2b18 <__divsf3+0x13c>
    2b00:	27 fd       	sbrc	r18, 7
    2b02:	0a c0       	rjmp	.+20     	; 0x2b18 <__divsf3+0x13c>
    2b04:	e1 14       	cp	r14, r1
    2b06:	f1 04       	cpc	r15, r1
    2b08:	01 05       	cpc	r16, r1
    2b0a:	11 05       	cpc	r17, r1
    2b0c:	29 f0       	breq	.+10     	; 0x2b18 <__divsf3+0x13c>
    2b0e:	20 5c       	subi	r18, 0xC0	; 192
    2b10:	3f 4f       	sbci	r19, 0xFF	; 255
    2b12:	4f 4f       	sbci	r20, 0xFF	; 255
    2b14:	5f 4f       	sbci	r21, 0xFF	; 255
    2b16:	20 78       	andi	r18, 0x80	; 128
    2b18:	2d 87       	std	Y+13, r18	; 0x0d
    2b1a:	3e 87       	std	Y+14, r19	; 0x0e
    2b1c:	4f 87       	std	Y+15, r20	; 0x0f
    2b1e:	58 8b       	std	Y+16, r21	; 0x10
    2b20:	be 01       	movw	r22, r28
    2b22:	67 5f       	subi	r22, 0xF7	; 247
    2b24:	7f 4f       	sbci	r23, 0xFF	; 255
    2b26:	cb 01       	movw	r24, r22
    2b28:	0e 94 ff 17 	call	0x2ffe	; 0x2ffe <__pack_f>
    2b2c:	68 96       	adiw	r28, 0x18	; 24
    2b2e:	ea e0       	ldi	r30, 0x0A	; 10
    2b30:	0c 94 31 1a 	jmp	0x3462	; 0x3462 <__epilogue_restores__+0x10>

00002b34 <__gtsf2>:
    2b34:	a8 e1       	ldi	r26, 0x18	; 24
    2b36:	b0 e0       	ldi	r27, 0x00	; 0
    2b38:	e0 ea       	ldi	r30, 0xA0	; 160
    2b3a:	f5 e1       	ldi	r31, 0x15	; 21
    2b3c:	0c 94 19 1a 	jmp	0x3432	; 0x3432 <__prologue_saves__+0x18>
    2b40:	69 83       	std	Y+1, r22	; 0x01
    2b42:	7a 83       	std	Y+2, r23	; 0x02
    2b44:	8b 83       	std	Y+3, r24	; 0x03
    2b46:	9c 83       	std	Y+4, r25	; 0x04
    2b48:	2d 83       	std	Y+5, r18	; 0x05
    2b4a:	3e 83       	std	Y+6, r19	; 0x06
    2b4c:	4f 83       	std	Y+7, r20	; 0x07
    2b4e:	58 87       	std	Y+8, r21	; 0x08
    2b50:	89 e0       	ldi	r24, 0x09	; 9
    2b52:	e8 2e       	mov	r14, r24
    2b54:	f1 2c       	mov	r15, r1
    2b56:	ec 0e       	add	r14, r28
    2b58:	fd 1e       	adc	r15, r29
    2b5a:	ce 01       	movw	r24, r28
    2b5c:	01 96       	adiw	r24, 0x01	; 1
    2b5e:	b7 01       	movw	r22, r14
    2b60:	0e 94 d4 18 	call	0x31a8	; 0x31a8 <__unpack_f>
    2b64:	8e 01       	movw	r16, r28
    2b66:	0f 5e       	subi	r16, 0xEF	; 239
    2b68:	1f 4f       	sbci	r17, 0xFF	; 255
    2b6a:	ce 01       	movw	r24, r28
    2b6c:	05 96       	adiw	r24, 0x05	; 5
    2b6e:	b8 01       	movw	r22, r16
    2b70:	0e 94 d4 18 	call	0x31a8	; 0x31a8 <__unpack_f>
    2b74:	89 85       	ldd	r24, Y+9	; 0x09
    2b76:	82 30       	cpi	r24, 0x02	; 2
    2b78:	40 f0       	brcs	.+16     	; 0x2b8a <__gtsf2+0x56>
    2b7a:	89 89       	ldd	r24, Y+17	; 0x11
    2b7c:	82 30       	cpi	r24, 0x02	; 2
    2b7e:	28 f0       	brcs	.+10     	; 0x2b8a <__gtsf2+0x56>
    2b80:	c7 01       	movw	r24, r14
    2b82:	b8 01       	movw	r22, r16
    2b84:	0e 94 4c 19 	call	0x3298	; 0x3298 <__fpcmp_parts_f>
    2b88:	01 c0       	rjmp	.+2      	; 0x2b8c <__gtsf2+0x58>
    2b8a:	8f ef       	ldi	r24, 0xFF	; 255
    2b8c:	68 96       	adiw	r28, 0x18	; 24
    2b8e:	e6 e0       	ldi	r30, 0x06	; 6
    2b90:	0c 94 35 1a 	jmp	0x346a	; 0x346a <__epilogue_restores__+0x18>

00002b94 <__gesf2>:
    2b94:	a8 e1       	ldi	r26, 0x18	; 24
    2b96:	b0 e0       	ldi	r27, 0x00	; 0
    2b98:	e0 ed       	ldi	r30, 0xD0	; 208
    2b9a:	f5 e1       	ldi	r31, 0x15	; 21
    2b9c:	0c 94 19 1a 	jmp	0x3432	; 0x3432 <__prologue_saves__+0x18>
    2ba0:	69 83       	std	Y+1, r22	; 0x01
    2ba2:	7a 83       	std	Y+2, r23	; 0x02
    2ba4:	8b 83       	std	Y+3, r24	; 0x03
    2ba6:	9c 83       	std	Y+4, r25	; 0x04
    2ba8:	2d 83       	std	Y+5, r18	; 0x05
    2baa:	3e 83       	std	Y+6, r19	; 0x06
    2bac:	4f 83       	std	Y+7, r20	; 0x07
    2bae:	58 87       	std	Y+8, r21	; 0x08
    2bb0:	89 e0       	ldi	r24, 0x09	; 9
    2bb2:	e8 2e       	mov	r14, r24
    2bb4:	f1 2c       	mov	r15, r1
    2bb6:	ec 0e       	add	r14, r28
    2bb8:	fd 1e       	adc	r15, r29
    2bba:	ce 01       	movw	r24, r28
    2bbc:	01 96       	adiw	r24, 0x01	; 1
    2bbe:	b7 01       	movw	r22, r14
    2bc0:	0e 94 d4 18 	call	0x31a8	; 0x31a8 <__unpack_f>
    2bc4:	8e 01       	movw	r16, r28
    2bc6:	0f 5e       	subi	r16, 0xEF	; 239
    2bc8:	1f 4f       	sbci	r17, 0xFF	; 255
    2bca:	ce 01       	movw	r24, r28
    2bcc:	05 96       	adiw	r24, 0x05	; 5
    2bce:	b8 01       	movw	r22, r16
    2bd0:	0e 94 d4 18 	call	0x31a8	; 0x31a8 <__unpack_f>
    2bd4:	89 85       	ldd	r24, Y+9	; 0x09
    2bd6:	82 30       	cpi	r24, 0x02	; 2
    2bd8:	40 f0       	brcs	.+16     	; 0x2bea <__gesf2+0x56>
    2bda:	89 89       	ldd	r24, Y+17	; 0x11
    2bdc:	82 30       	cpi	r24, 0x02	; 2
    2bde:	28 f0       	brcs	.+10     	; 0x2bea <__gesf2+0x56>
    2be0:	c7 01       	movw	r24, r14
    2be2:	b8 01       	movw	r22, r16
    2be4:	0e 94 4c 19 	call	0x3298	; 0x3298 <__fpcmp_parts_f>
    2be8:	01 c0       	rjmp	.+2      	; 0x2bec <__gesf2+0x58>
    2bea:	8f ef       	ldi	r24, 0xFF	; 255
    2bec:	68 96       	adiw	r28, 0x18	; 24
    2bee:	e6 e0       	ldi	r30, 0x06	; 6
    2bf0:	0c 94 35 1a 	jmp	0x346a	; 0x346a <__epilogue_restores__+0x18>

00002bf4 <__ltsf2>:
    2bf4:	a8 e1       	ldi	r26, 0x18	; 24
    2bf6:	b0 e0       	ldi	r27, 0x00	; 0
    2bf8:	e0 e0       	ldi	r30, 0x00	; 0
    2bfa:	f6 e1       	ldi	r31, 0x16	; 22
    2bfc:	0c 94 19 1a 	jmp	0x3432	; 0x3432 <__prologue_saves__+0x18>
    2c00:	69 83       	std	Y+1, r22	; 0x01
    2c02:	7a 83       	std	Y+2, r23	; 0x02
    2c04:	8b 83       	std	Y+3, r24	; 0x03
    2c06:	9c 83       	std	Y+4, r25	; 0x04
    2c08:	2d 83       	std	Y+5, r18	; 0x05
    2c0a:	3e 83       	std	Y+6, r19	; 0x06
    2c0c:	4f 83       	std	Y+7, r20	; 0x07
    2c0e:	58 87       	std	Y+8, r21	; 0x08
    2c10:	89 e0       	ldi	r24, 0x09	; 9
    2c12:	e8 2e       	mov	r14, r24
    2c14:	f1 2c       	mov	r15, r1
    2c16:	ec 0e       	add	r14, r28
    2c18:	fd 1e       	adc	r15, r29
    2c1a:	ce 01       	movw	r24, r28
    2c1c:	01 96       	adiw	r24, 0x01	; 1
    2c1e:	b7 01       	movw	r22, r14
    2c20:	0e 94 d4 18 	call	0x31a8	; 0x31a8 <__unpack_f>
    2c24:	8e 01       	movw	r16, r28
    2c26:	0f 5e       	subi	r16, 0xEF	; 239
    2c28:	1f 4f       	sbci	r17, 0xFF	; 255
    2c2a:	ce 01       	movw	r24, r28
    2c2c:	05 96       	adiw	r24, 0x05	; 5
    2c2e:	b8 01       	movw	r22, r16
    2c30:	0e 94 d4 18 	call	0x31a8	; 0x31a8 <__unpack_f>
    2c34:	89 85       	ldd	r24, Y+9	; 0x09
    2c36:	82 30       	cpi	r24, 0x02	; 2
    2c38:	40 f0       	brcs	.+16     	; 0x2c4a <__ltsf2+0x56>
    2c3a:	89 89       	ldd	r24, Y+17	; 0x11
    2c3c:	82 30       	cpi	r24, 0x02	; 2
    2c3e:	28 f0       	brcs	.+10     	; 0x2c4a <__ltsf2+0x56>
    2c40:	c7 01       	movw	r24, r14
    2c42:	b8 01       	movw	r22, r16
    2c44:	0e 94 4c 19 	call	0x3298	; 0x3298 <__fpcmp_parts_f>
    2c48:	01 c0       	rjmp	.+2      	; 0x2c4c <__ltsf2+0x58>
    2c4a:	81 e0       	ldi	r24, 0x01	; 1
    2c4c:	68 96       	adiw	r28, 0x18	; 24
    2c4e:	e6 e0       	ldi	r30, 0x06	; 6
    2c50:	0c 94 35 1a 	jmp	0x346a	; 0x346a <__epilogue_restores__+0x18>

00002c54 <__lesf2>:
    2c54:	a8 e1       	ldi	r26, 0x18	; 24
    2c56:	b0 e0       	ldi	r27, 0x00	; 0
    2c58:	e0 e3       	ldi	r30, 0x30	; 48
    2c5a:	f6 e1       	ldi	r31, 0x16	; 22
    2c5c:	0c 94 19 1a 	jmp	0x3432	; 0x3432 <__prologue_saves__+0x18>
    2c60:	69 83       	std	Y+1, r22	; 0x01
    2c62:	7a 83       	std	Y+2, r23	; 0x02
    2c64:	8b 83       	std	Y+3, r24	; 0x03
    2c66:	9c 83       	std	Y+4, r25	; 0x04
    2c68:	2d 83       	std	Y+5, r18	; 0x05
    2c6a:	3e 83       	std	Y+6, r19	; 0x06
    2c6c:	4f 83       	std	Y+7, r20	; 0x07
    2c6e:	58 87       	std	Y+8, r21	; 0x08
    2c70:	89 e0       	ldi	r24, 0x09	; 9
    2c72:	e8 2e       	mov	r14, r24
    2c74:	f1 2c       	mov	r15, r1
    2c76:	ec 0e       	add	r14, r28
    2c78:	fd 1e       	adc	r15, r29
    2c7a:	ce 01       	movw	r24, r28
    2c7c:	01 96       	adiw	r24, 0x01	; 1
    2c7e:	b7 01       	movw	r22, r14
    2c80:	0e 94 d4 18 	call	0x31a8	; 0x31a8 <__unpack_f>
    2c84:	8e 01       	movw	r16, r28
    2c86:	0f 5e       	subi	r16, 0xEF	; 239
    2c88:	1f 4f       	sbci	r17, 0xFF	; 255
    2c8a:	ce 01       	movw	r24, r28
    2c8c:	05 96       	adiw	r24, 0x05	; 5
    2c8e:	b8 01       	movw	r22, r16
    2c90:	0e 94 d4 18 	call	0x31a8	; 0x31a8 <__unpack_f>
    2c94:	89 85       	ldd	r24, Y+9	; 0x09
    2c96:	82 30       	cpi	r24, 0x02	; 2
    2c98:	40 f0       	brcs	.+16     	; 0x2caa <__lesf2+0x56>
    2c9a:	89 89       	ldd	r24, Y+17	; 0x11
    2c9c:	82 30       	cpi	r24, 0x02	; 2
    2c9e:	28 f0       	brcs	.+10     	; 0x2caa <__lesf2+0x56>
    2ca0:	c7 01       	movw	r24, r14
    2ca2:	b8 01       	movw	r22, r16
    2ca4:	0e 94 4c 19 	call	0x3298	; 0x3298 <__fpcmp_parts_f>
    2ca8:	01 c0       	rjmp	.+2      	; 0x2cac <__lesf2+0x58>
    2caa:	81 e0       	ldi	r24, 0x01	; 1
    2cac:	68 96       	adiw	r28, 0x18	; 24
    2cae:	e6 e0       	ldi	r30, 0x06	; 6
    2cb0:	0c 94 35 1a 	jmp	0x346a	; 0x346a <__epilogue_restores__+0x18>

00002cb4 <__unordsf2>:
    2cb4:	a8 e1       	ldi	r26, 0x18	; 24
    2cb6:	b0 e0       	ldi	r27, 0x00	; 0
    2cb8:	e0 e6       	ldi	r30, 0x60	; 96
    2cba:	f6 e1       	ldi	r31, 0x16	; 22
    2cbc:	0c 94 1d 1a 	jmp	0x343a	; 0x343a <__prologue_saves__+0x20>
    2cc0:	69 83       	std	Y+1, r22	; 0x01
    2cc2:	7a 83       	std	Y+2, r23	; 0x02
    2cc4:	8b 83       	std	Y+3, r24	; 0x03
    2cc6:	9c 83       	std	Y+4, r25	; 0x04
    2cc8:	2d 83       	std	Y+5, r18	; 0x05
    2cca:	3e 83       	std	Y+6, r19	; 0x06
    2ccc:	4f 83       	std	Y+7, r20	; 0x07
    2cce:	58 87       	std	Y+8, r21	; 0x08
    2cd0:	ce 01       	movw	r24, r28
    2cd2:	01 96       	adiw	r24, 0x01	; 1
    2cd4:	be 01       	movw	r22, r28
    2cd6:	67 5f       	subi	r22, 0xF7	; 247
    2cd8:	7f 4f       	sbci	r23, 0xFF	; 255
    2cda:	0e 94 d4 18 	call	0x31a8	; 0x31a8 <__unpack_f>
    2cde:	ce 01       	movw	r24, r28
    2ce0:	05 96       	adiw	r24, 0x05	; 5
    2ce2:	be 01       	movw	r22, r28
    2ce4:	6f 5e       	subi	r22, 0xEF	; 239
    2ce6:	7f 4f       	sbci	r23, 0xFF	; 255
    2ce8:	0e 94 d4 18 	call	0x31a8	; 0x31a8 <__unpack_f>
    2cec:	89 85       	ldd	r24, Y+9	; 0x09
    2cee:	82 30       	cpi	r24, 0x02	; 2
    2cf0:	28 f0       	brcs	.+10     	; 0x2cfc <__unordsf2+0x48>
    2cf2:	20 e0       	ldi	r18, 0x00	; 0
    2cf4:	30 e0       	ldi	r19, 0x00	; 0
    2cf6:	89 89       	ldd	r24, Y+17	; 0x11
    2cf8:	82 30       	cpi	r24, 0x02	; 2
    2cfa:	10 f4       	brcc	.+4      	; 0x2d00 <__unordsf2+0x4c>
    2cfc:	21 e0       	ldi	r18, 0x01	; 1
    2cfe:	30 e0       	ldi	r19, 0x00	; 0
    2d00:	82 2f       	mov	r24, r18
    2d02:	68 96       	adiw	r28, 0x18	; 24
    2d04:	e2 e0       	ldi	r30, 0x02	; 2
    2d06:	0c 94 39 1a 	jmp	0x3472	; 0x3472 <__epilogue_restores__+0x20>

00002d0a <__floatsisf>:
    2d0a:	a8 e0       	ldi	r26, 0x08	; 8
    2d0c:	b0 e0       	ldi	r27, 0x00	; 0
    2d0e:	eb e8       	ldi	r30, 0x8B	; 139
    2d10:	f6 e1       	ldi	r31, 0x16	; 22
    2d12:	0c 94 16 1a 	jmp	0x342c	; 0x342c <__prologue_saves__+0x12>
    2d16:	9b 01       	movw	r18, r22
    2d18:	ac 01       	movw	r20, r24
    2d1a:	83 e0       	ldi	r24, 0x03	; 3
    2d1c:	89 83       	std	Y+1, r24	; 0x01
    2d1e:	da 01       	movw	r26, r20
    2d20:	c9 01       	movw	r24, r18
    2d22:	88 27       	eor	r24, r24
    2d24:	b7 fd       	sbrc	r27, 7
    2d26:	83 95       	inc	r24
    2d28:	99 27       	eor	r25, r25
    2d2a:	aa 27       	eor	r26, r26
    2d2c:	bb 27       	eor	r27, r27
    2d2e:	b8 2e       	mov	r11, r24
    2d30:	21 15       	cp	r18, r1
    2d32:	31 05       	cpc	r19, r1
    2d34:	41 05       	cpc	r20, r1
    2d36:	51 05       	cpc	r21, r1
    2d38:	19 f4       	brne	.+6      	; 0x2d40 <__floatsisf+0x36>
    2d3a:	82 e0       	ldi	r24, 0x02	; 2
    2d3c:	89 83       	std	Y+1, r24	; 0x01
    2d3e:	3a c0       	rjmp	.+116    	; 0x2db4 <__floatsisf+0xaa>
    2d40:	88 23       	and	r24, r24
    2d42:	a9 f0       	breq	.+42     	; 0x2d6e <__floatsisf+0x64>
    2d44:	20 30       	cpi	r18, 0x00	; 0
    2d46:	80 e0       	ldi	r24, 0x00	; 0
    2d48:	38 07       	cpc	r19, r24
    2d4a:	80 e0       	ldi	r24, 0x00	; 0
    2d4c:	48 07       	cpc	r20, r24
    2d4e:	80 e8       	ldi	r24, 0x80	; 128
    2d50:	58 07       	cpc	r21, r24
    2d52:	29 f4       	brne	.+10     	; 0x2d5e <__floatsisf+0x54>
    2d54:	60 e0       	ldi	r22, 0x00	; 0
    2d56:	70 e0       	ldi	r23, 0x00	; 0
    2d58:	80 e0       	ldi	r24, 0x00	; 0
    2d5a:	9f ec       	ldi	r25, 0xCF	; 207
    2d5c:	30 c0       	rjmp	.+96     	; 0x2dbe <__floatsisf+0xb4>
    2d5e:	ee 24       	eor	r14, r14
    2d60:	ff 24       	eor	r15, r15
    2d62:	87 01       	movw	r16, r14
    2d64:	e2 1a       	sub	r14, r18
    2d66:	f3 0a       	sbc	r15, r19
    2d68:	04 0b       	sbc	r16, r20
    2d6a:	15 0b       	sbc	r17, r21
    2d6c:	02 c0       	rjmp	.+4      	; 0x2d72 <__floatsisf+0x68>
    2d6e:	79 01       	movw	r14, r18
    2d70:	8a 01       	movw	r16, r20
    2d72:	8e e1       	ldi	r24, 0x1E	; 30
    2d74:	c8 2e       	mov	r12, r24
    2d76:	d1 2c       	mov	r13, r1
    2d78:	dc 82       	std	Y+4, r13	; 0x04
    2d7a:	cb 82       	std	Y+3, r12	; 0x03
    2d7c:	ed 82       	std	Y+5, r14	; 0x05
    2d7e:	fe 82       	std	Y+6, r15	; 0x06
    2d80:	0f 83       	std	Y+7, r16	; 0x07
    2d82:	18 87       	std	Y+8, r17	; 0x08
    2d84:	c8 01       	movw	r24, r16
    2d86:	b7 01       	movw	r22, r14
    2d88:	0e 94 b0 17 	call	0x2f60	; 0x2f60 <__clzsi2>
    2d8c:	01 97       	sbiw	r24, 0x01	; 1
    2d8e:	18 16       	cp	r1, r24
    2d90:	19 06       	cpc	r1, r25
    2d92:	84 f4       	brge	.+32     	; 0x2db4 <__floatsisf+0xaa>
    2d94:	08 2e       	mov	r0, r24
    2d96:	04 c0       	rjmp	.+8      	; 0x2da0 <__floatsisf+0x96>
    2d98:	ee 0c       	add	r14, r14
    2d9a:	ff 1c       	adc	r15, r15
    2d9c:	00 1f       	adc	r16, r16
    2d9e:	11 1f       	adc	r17, r17
    2da0:	0a 94       	dec	r0
    2da2:	d2 f7       	brpl	.-12     	; 0x2d98 <__floatsisf+0x8e>
    2da4:	ed 82       	std	Y+5, r14	; 0x05
    2da6:	fe 82       	std	Y+6, r15	; 0x06
    2da8:	0f 83       	std	Y+7, r16	; 0x07
    2daa:	18 87       	std	Y+8, r17	; 0x08
    2dac:	c8 1a       	sub	r12, r24
    2dae:	d9 0a       	sbc	r13, r25
    2db0:	dc 82       	std	Y+4, r13	; 0x04
    2db2:	cb 82       	std	Y+3, r12	; 0x03
    2db4:	ba 82       	std	Y+2, r11	; 0x02
    2db6:	ce 01       	movw	r24, r28
    2db8:	01 96       	adiw	r24, 0x01	; 1
    2dba:	0e 94 ff 17 	call	0x2ffe	; 0x2ffe <__pack_f>
    2dbe:	28 96       	adiw	r28, 0x08	; 8
    2dc0:	e9 e0       	ldi	r30, 0x09	; 9
    2dc2:	0c 94 32 1a 	jmp	0x3464	; 0x3464 <__epilogue_restores__+0x12>

00002dc6 <__fixsfsi>:
    2dc6:	ac e0       	ldi	r26, 0x0C	; 12
    2dc8:	b0 e0       	ldi	r27, 0x00	; 0
    2dca:	e9 ee       	ldi	r30, 0xE9	; 233
    2dcc:	f6 e1       	ldi	r31, 0x16	; 22
    2dce:	0c 94 1d 1a 	jmp	0x343a	; 0x343a <__prologue_saves__+0x20>
    2dd2:	69 83       	std	Y+1, r22	; 0x01
    2dd4:	7a 83       	std	Y+2, r23	; 0x02
    2dd6:	8b 83       	std	Y+3, r24	; 0x03
    2dd8:	9c 83       	std	Y+4, r25	; 0x04
    2dda:	ce 01       	movw	r24, r28
    2ddc:	01 96       	adiw	r24, 0x01	; 1
    2dde:	be 01       	movw	r22, r28
    2de0:	6b 5f       	subi	r22, 0xFB	; 251
    2de2:	7f 4f       	sbci	r23, 0xFF	; 255
    2de4:	0e 94 d4 18 	call	0x31a8	; 0x31a8 <__unpack_f>
    2de8:	8d 81       	ldd	r24, Y+5	; 0x05
    2dea:	82 30       	cpi	r24, 0x02	; 2
    2dec:	61 f1       	breq	.+88     	; 0x2e46 <__fixsfsi+0x80>
    2dee:	82 30       	cpi	r24, 0x02	; 2
    2df0:	50 f1       	brcs	.+84     	; 0x2e46 <__fixsfsi+0x80>
    2df2:	84 30       	cpi	r24, 0x04	; 4
    2df4:	21 f4       	brne	.+8      	; 0x2dfe <__fixsfsi+0x38>
    2df6:	8e 81       	ldd	r24, Y+6	; 0x06
    2df8:	88 23       	and	r24, r24
    2dfa:	51 f1       	breq	.+84     	; 0x2e50 <__fixsfsi+0x8a>
    2dfc:	2e c0       	rjmp	.+92     	; 0x2e5a <__fixsfsi+0x94>
    2dfe:	2f 81       	ldd	r18, Y+7	; 0x07
    2e00:	38 85       	ldd	r19, Y+8	; 0x08
    2e02:	37 fd       	sbrc	r19, 7
    2e04:	20 c0       	rjmp	.+64     	; 0x2e46 <__fixsfsi+0x80>
    2e06:	6e 81       	ldd	r22, Y+6	; 0x06
    2e08:	2f 31       	cpi	r18, 0x1F	; 31
    2e0a:	31 05       	cpc	r19, r1
    2e0c:	1c f0       	brlt	.+6      	; 0x2e14 <__fixsfsi+0x4e>
    2e0e:	66 23       	and	r22, r22
    2e10:	f9 f0       	breq	.+62     	; 0x2e50 <__fixsfsi+0x8a>
    2e12:	23 c0       	rjmp	.+70     	; 0x2e5a <__fixsfsi+0x94>
    2e14:	8e e1       	ldi	r24, 0x1E	; 30
    2e16:	90 e0       	ldi	r25, 0x00	; 0
    2e18:	82 1b       	sub	r24, r18
    2e1a:	93 0b       	sbc	r25, r19
    2e1c:	29 85       	ldd	r18, Y+9	; 0x09
    2e1e:	3a 85       	ldd	r19, Y+10	; 0x0a
    2e20:	4b 85       	ldd	r20, Y+11	; 0x0b
    2e22:	5c 85       	ldd	r21, Y+12	; 0x0c
    2e24:	04 c0       	rjmp	.+8      	; 0x2e2e <__fixsfsi+0x68>
    2e26:	56 95       	lsr	r21
    2e28:	47 95       	ror	r20
    2e2a:	37 95       	ror	r19
    2e2c:	27 95       	ror	r18
    2e2e:	8a 95       	dec	r24
    2e30:	d2 f7       	brpl	.-12     	; 0x2e26 <__fixsfsi+0x60>
    2e32:	66 23       	and	r22, r22
    2e34:	b1 f0       	breq	.+44     	; 0x2e62 <__fixsfsi+0x9c>
    2e36:	50 95       	com	r21
    2e38:	40 95       	com	r20
    2e3a:	30 95       	com	r19
    2e3c:	21 95       	neg	r18
    2e3e:	3f 4f       	sbci	r19, 0xFF	; 255
    2e40:	4f 4f       	sbci	r20, 0xFF	; 255
    2e42:	5f 4f       	sbci	r21, 0xFF	; 255
    2e44:	0e c0       	rjmp	.+28     	; 0x2e62 <__fixsfsi+0x9c>
    2e46:	20 e0       	ldi	r18, 0x00	; 0
    2e48:	30 e0       	ldi	r19, 0x00	; 0
    2e4a:	40 e0       	ldi	r20, 0x00	; 0
    2e4c:	50 e0       	ldi	r21, 0x00	; 0
    2e4e:	09 c0       	rjmp	.+18     	; 0x2e62 <__fixsfsi+0x9c>
    2e50:	2f ef       	ldi	r18, 0xFF	; 255
    2e52:	3f ef       	ldi	r19, 0xFF	; 255
    2e54:	4f ef       	ldi	r20, 0xFF	; 255
    2e56:	5f e7       	ldi	r21, 0x7F	; 127
    2e58:	04 c0       	rjmp	.+8      	; 0x2e62 <__fixsfsi+0x9c>
    2e5a:	20 e0       	ldi	r18, 0x00	; 0
    2e5c:	30 e0       	ldi	r19, 0x00	; 0
    2e5e:	40 e0       	ldi	r20, 0x00	; 0
    2e60:	50 e8       	ldi	r21, 0x80	; 128
    2e62:	b9 01       	movw	r22, r18
    2e64:	ca 01       	movw	r24, r20
    2e66:	2c 96       	adiw	r28, 0x0c	; 12
    2e68:	e2 e0       	ldi	r30, 0x02	; 2
    2e6a:	0c 94 39 1a 	jmp	0x3472	; 0x3472 <__epilogue_restores__+0x20>

00002e6e <__floatunsisf>:
    2e6e:	a8 e0       	ldi	r26, 0x08	; 8
    2e70:	b0 e0       	ldi	r27, 0x00	; 0
    2e72:	ed e3       	ldi	r30, 0x3D	; 61
    2e74:	f7 e1       	ldi	r31, 0x17	; 23
    2e76:	0c 94 15 1a 	jmp	0x342a	; 0x342a <__prologue_saves__+0x10>
    2e7a:	7b 01       	movw	r14, r22
    2e7c:	8c 01       	movw	r16, r24
    2e7e:	61 15       	cp	r22, r1
    2e80:	71 05       	cpc	r23, r1
    2e82:	81 05       	cpc	r24, r1
    2e84:	91 05       	cpc	r25, r1
    2e86:	19 f4       	brne	.+6      	; 0x2e8e <__floatunsisf+0x20>
    2e88:	82 e0       	ldi	r24, 0x02	; 2
    2e8a:	89 83       	std	Y+1, r24	; 0x01
    2e8c:	60 c0       	rjmp	.+192    	; 0x2f4e <__floatunsisf+0xe0>
    2e8e:	83 e0       	ldi	r24, 0x03	; 3
    2e90:	89 83       	std	Y+1, r24	; 0x01
    2e92:	8e e1       	ldi	r24, 0x1E	; 30
    2e94:	c8 2e       	mov	r12, r24
    2e96:	d1 2c       	mov	r13, r1
    2e98:	dc 82       	std	Y+4, r13	; 0x04
    2e9a:	cb 82       	std	Y+3, r12	; 0x03
    2e9c:	ed 82       	std	Y+5, r14	; 0x05
    2e9e:	fe 82       	std	Y+6, r15	; 0x06
    2ea0:	0f 83       	std	Y+7, r16	; 0x07
    2ea2:	18 87       	std	Y+8, r17	; 0x08
    2ea4:	c8 01       	movw	r24, r16
    2ea6:	b7 01       	movw	r22, r14
    2ea8:	0e 94 b0 17 	call	0x2f60	; 0x2f60 <__clzsi2>
    2eac:	fc 01       	movw	r30, r24
    2eae:	31 97       	sbiw	r30, 0x01	; 1
    2eb0:	f7 ff       	sbrs	r31, 7
    2eb2:	3b c0       	rjmp	.+118    	; 0x2f2a <__floatunsisf+0xbc>
    2eb4:	22 27       	eor	r18, r18
    2eb6:	33 27       	eor	r19, r19
    2eb8:	2e 1b       	sub	r18, r30
    2eba:	3f 0b       	sbc	r19, r31
    2ebc:	57 01       	movw	r10, r14
    2ebe:	68 01       	movw	r12, r16
    2ec0:	02 2e       	mov	r0, r18
    2ec2:	04 c0       	rjmp	.+8      	; 0x2ecc <__floatunsisf+0x5e>
    2ec4:	d6 94       	lsr	r13
    2ec6:	c7 94       	ror	r12
    2ec8:	b7 94       	ror	r11
    2eca:	a7 94       	ror	r10
    2ecc:	0a 94       	dec	r0
    2ece:	d2 f7       	brpl	.-12     	; 0x2ec4 <__floatunsisf+0x56>
    2ed0:	40 e0       	ldi	r20, 0x00	; 0
    2ed2:	50 e0       	ldi	r21, 0x00	; 0
    2ed4:	60 e0       	ldi	r22, 0x00	; 0
    2ed6:	70 e0       	ldi	r23, 0x00	; 0
    2ed8:	81 e0       	ldi	r24, 0x01	; 1
    2eda:	90 e0       	ldi	r25, 0x00	; 0
    2edc:	a0 e0       	ldi	r26, 0x00	; 0
    2ede:	b0 e0       	ldi	r27, 0x00	; 0
    2ee0:	04 c0       	rjmp	.+8      	; 0x2eea <__floatunsisf+0x7c>
    2ee2:	88 0f       	add	r24, r24
    2ee4:	99 1f       	adc	r25, r25
    2ee6:	aa 1f       	adc	r26, r26
    2ee8:	bb 1f       	adc	r27, r27
    2eea:	2a 95       	dec	r18
    2eec:	d2 f7       	brpl	.-12     	; 0x2ee2 <__floatunsisf+0x74>
    2eee:	01 97       	sbiw	r24, 0x01	; 1
    2ef0:	a1 09       	sbc	r26, r1
    2ef2:	b1 09       	sbc	r27, r1
    2ef4:	8e 21       	and	r24, r14
    2ef6:	9f 21       	and	r25, r15
    2ef8:	a0 23       	and	r26, r16
    2efa:	b1 23       	and	r27, r17
    2efc:	00 97       	sbiw	r24, 0x00	; 0
    2efe:	a1 05       	cpc	r26, r1
    2f00:	b1 05       	cpc	r27, r1
    2f02:	21 f0       	breq	.+8      	; 0x2f0c <__floatunsisf+0x9e>
    2f04:	41 e0       	ldi	r20, 0x01	; 1
    2f06:	50 e0       	ldi	r21, 0x00	; 0
    2f08:	60 e0       	ldi	r22, 0x00	; 0
    2f0a:	70 e0       	ldi	r23, 0x00	; 0
    2f0c:	4a 29       	or	r20, r10
    2f0e:	5b 29       	or	r21, r11
    2f10:	6c 29       	or	r22, r12
    2f12:	7d 29       	or	r23, r13
    2f14:	4d 83       	std	Y+5, r20	; 0x05
    2f16:	5e 83       	std	Y+6, r21	; 0x06
    2f18:	6f 83       	std	Y+7, r22	; 0x07
    2f1a:	78 87       	std	Y+8, r23	; 0x08
    2f1c:	8e e1       	ldi	r24, 0x1E	; 30
    2f1e:	90 e0       	ldi	r25, 0x00	; 0
    2f20:	8e 1b       	sub	r24, r30
    2f22:	9f 0b       	sbc	r25, r31
    2f24:	9c 83       	std	Y+4, r25	; 0x04
    2f26:	8b 83       	std	Y+3, r24	; 0x03
    2f28:	12 c0       	rjmp	.+36     	; 0x2f4e <__floatunsisf+0xe0>
    2f2a:	30 97       	sbiw	r30, 0x00	; 0
    2f2c:	81 f0       	breq	.+32     	; 0x2f4e <__floatunsisf+0xe0>
    2f2e:	0e 2e       	mov	r0, r30
    2f30:	04 c0       	rjmp	.+8      	; 0x2f3a <__floatunsisf+0xcc>
    2f32:	ee 0c       	add	r14, r14
    2f34:	ff 1c       	adc	r15, r15
    2f36:	00 1f       	adc	r16, r16
    2f38:	11 1f       	adc	r17, r17
    2f3a:	0a 94       	dec	r0
    2f3c:	d2 f7       	brpl	.-12     	; 0x2f32 <__floatunsisf+0xc4>
    2f3e:	ed 82       	std	Y+5, r14	; 0x05
    2f40:	fe 82       	std	Y+6, r15	; 0x06
    2f42:	0f 83       	std	Y+7, r16	; 0x07
    2f44:	18 87       	std	Y+8, r17	; 0x08
    2f46:	ce 1a       	sub	r12, r30
    2f48:	df 0a       	sbc	r13, r31
    2f4a:	dc 82       	std	Y+4, r13	; 0x04
    2f4c:	cb 82       	std	Y+3, r12	; 0x03
    2f4e:	1a 82       	std	Y+2, r1	; 0x02
    2f50:	ce 01       	movw	r24, r28
    2f52:	01 96       	adiw	r24, 0x01	; 1
    2f54:	0e 94 ff 17 	call	0x2ffe	; 0x2ffe <__pack_f>
    2f58:	28 96       	adiw	r28, 0x08	; 8
    2f5a:	ea e0       	ldi	r30, 0x0A	; 10
    2f5c:	0c 94 31 1a 	jmp	0x3462	; 0x3462 <__epilogue_restores__+0x10>

00002f60 <__clzsi2>:
    2f60:	ef 92       	push	r14
    2f62:	ff 92       	push	r15
    2f64:	0f 93       	push	r16
    2f66:	1f 93       	push	r17
    2f68:	7b 01       	movw	r14, r22
    2f6a:	8c 01       	movw	r16, r24
    2f6c:	80 e0       	ldi	r24, 0x00	; 0
    2f6e:	e8 16       	cp	r14, r24
    2f70:	80 e0       	ldi	r24, 0x00	; 0
    2f72:	f8 06       	cpc	r15, r24
    2f74:	81 e0       	ldi	r24, 0x01	; 1
    2f76:	08 07       	cpc	r16, r24
    2f78:	80 e0       	ldi	r24, 0x00	; 0
    2f7a:	18 07       	cpc	r17, r24
    2f7c:	88 f4       	brcc	.+34     	; 0x2fa0 <__clzsi2+0x40>
    2f7e:	8f ef       	ldi	r24, 0xFF	; 255
    2f80:	e8 16       	cp	r14, r24
    2f82:	f1 04       	cpc	r15, r1
    2f84:	01 05       	cpc	r16, r1
    2f86:	11 05       	cpc	r17, r1
    2f88:	31 f0       	breq	.+12     	; 0x2f96 <__clzsi2+0x36>
    2f8a:	28 f0       	brcs	.+10     	; 0x2f96 <__clzsi2+0x36>
    2f8c:	88 e0       	ldi	r24, 0x08	; 8
    2f8e:	90 e0       	ldi	r25, 0x00	; 0
    2f90:	a0 e0       	ldi	r26, 0x00	; 0
    2f92:	b0 e0       	ldi	r27, 0x00	; 0
    2f94:	17 c0       	rjmp	.+46     	; 0x2fc4 <__clzsi2+0x64>
    2f96:	80 e0       	ldi	r24, 0x00	; 0
    2f98:	90 e0       	ldi	r25, 0x00	; 0
    2f9a:	a0 e0       	ldi	r26, 0x00	; 0
    2f9c:	b0 e0       	ldi	r27, 0x00	; 0
    2f9e:	12 c0       	rjmp	.+36     	; 0x2fc4 <__clzsi2+0x64>
    2fa0:	80 e0       	ldi	r24, 0x00	; 0
    2fa2:	e8 16       	cp	r14, r24
    2fa4:	80 e0       	ldi	r24, 0x00	; 0
    2fa6:	f8 06       	cpc	r15, r24
    2fa8:	80 e0       	ldi	r24, 0x00	; 0
    2faa:	08 07       	cpc	r16, r24
    2fac:	81 e0       	ldi	r24, 0x01	; 1
    2fae:	18 07       	cpc	r17, r24
    2fb0:	28 f0       	brcs	.+10     	; 0x2fbc <__clzsi2+0x5c>
    2fb2:	88 e1       	ldi	r24, 0x18	; 24
    2fb4:	90 e0       	ldi	r25, 0x00	; 0
    2fb6:	a0 e0       	ldi	r26, 0x00	; 0
    2fb8:	b0 e0       	ldi	r27, 0x00	; 0
    2fba:	04 c0       	rjmp	.+8      	; 0x2fc4 <__clzsi2+0x64>
    2fbc:	80 e1       	ldi	r24, 0x10	; 16
    2fbe:	90 e0       	ldi	r25, 0x00	; 0
    2fc0:	a0 e0       	ldi	r26, 0x00	; 0
    2fc2:	b0 e0       	ldi	r27, 0x00	; 0
    2fc4:	20 e2       	ldi	r18, 0x20	; 32
    2fc6:	30 e0       	ldi	r19, 0x00	; 0
    2fc8:	40 e0       	ldi	r20, 0x00	; 0
    2fca:	50 e0       	ldi	r21, 0x00	; 0
    2fcc:	28 1b       	sub	r18, r24
    2fce:	39 0b       	sbc	r19, r25
    2fd0:	4a 0b       	sbc	r20, r26
    2fd2:	5b 0b       	sbc	r21, r27
    2fd4:	04 c0       	rjmp	.+8      	; 0x2fde <__clzsi2+0x7e>
    2fd6:	16 95       	lsr	r17
    2fd8:	07 95       	ror	r16
    2fda:	f7 94       	ror	r15
    2fdc:	e7 94       	ror	r14
    2fde:	8a 95       	dec	r24
    2fe0:	d2 f7       	brpl	.-12     	; 0x2fd6 <__clzsi2+0x76>
    2fe2:	f7 01       	movw	r30, r14
    2fe4:	ef 5b       	subi	r30, 0xBF	; 191
    2fe6:	fe 4f       	sbci	r31, 0xFE	; 254
    2fe8:	80 81       	ld	r24, Z
    2fea:	28 1b       	sub	r18, r24
    2fec:	31 09       	sbc	r19, r1
    2fee:	41 09       	sbc	r20, r1
    2ff0:	51 09       	sbc	r21, r1
    2ff2:	c9 01       	movw	r24, r18
    2ff4:	1f 91       	pop	r17
    2ff6:	0f 91       	pop	r16
    2ff8:	ff 90       	pop	r15
    2ffa:	ef 90       	pop	r14
    2ffc:	08 95       	ret

00002ffe <__pack_f>:
    2ffe:	df 92       	push	r13
    3000:	ef 92       	push	r14
    3002:	ff 92       	push	r15
    3004:	0f 93       	push	r16
    3006:	1f 93       	push	r17
    3008:	fc 01       	movw	r30, r24
    300a:	e4 80       	ldd	r14, Z+4	; 0x04
    300c:	f5 80       	ldd	r15, Z+5	; 0x05
    300e:	06 81       	ldd	r16, Z+6	; 0x06
    3010:	17 81       	ldd	r17, Z+7	; 0x07
    3012:	d1 80       	ldd	r13, Z+1	; 0x01
    3014:	80 81       	ld	r24, Z
    3016:	82 30       	cpi	r24, 0x02	; 2
    3018:	48 f4       	brcc	.+18     	; 0x302c <__pack_f+0x2e>
    301a:	80 e0       	ldi	r24, 0x00	; 0
    301c:	90 e0       	ldi	r25, 0x00	; 0
    301e:	a0 e1       	ldi	r26, 0x10	; 16
    3020:	b0 e0       	ldi	r27, 0x00	; 0
    3022:	e8 2a       	or	r14, r24
    3024:	f9 2a       	or	r15, r25
    3026:	0a 2b       	or	r16, r26
    3028:	1b 2b       	or	r17, r27
    302a:	a5 c0       	rjmp	.+330    	; 0x3176 <__pack_f+0x178>
    302c:	84 30       	cpi	r24, 0x04	; 4
    302e:	09 f4       	brne	.+2      	; 0x3032 <__pack_f+0x34>
    3030:	9f c0       	rjmp	.+318    	; 0x3170 <__pack_f+0x172>
    3032:	82 30       	cpi	r24, 0x02	; 2
    3034:	21 f4       	brne	.+8      	; 0x303e <__pack_f+0x40>
    3036:	ee 24       	eor	r14, r14
    3038:	ff 24       	eor	r15, r15
    303a:	87 01       	movw	r16, r14
    303c:	05 c0       	rjmp	.+10     	; 0x3048 <__pack_f+0x4a>
    303e:	e1 14       	cp	r14, r1
    3040:	f1 04       	cpc	r15, r1
    3042:	01 05       	cpc	r16, r1
    3044:	11 05       	cpc	r17, r1
    3046:	19 f4       	brne	.+6      	; 0x304e <__pack_f+0x50>
    3048:	e0 e0       	ldi	r30, 0x00	; 0
    304a:	f0 e0       	ldi	r31, 0x00	; 0
    304c:	96 c0       	rjmp	.+300    	; 0x317a <__pack_f+0x17c>
    304e:	62 81       	ldd	r22, Z+2	; 0x02
    3050:	73 81       	ldd	r23, Z+3	; 0x03
    3052:	9f ef       	ldi	r25, 0xFF	; 255
    3054:	62 38       	cpi	r22, 0x82	; 130
    3056:	79 07       	cpc	r23, r25
    3058:	0c f0       	brlt	.+2      	; 0x305c <__pack_f+0x5e>
    305a:	5b c0       	rjmp	.+182    	; 0x3112 <__pack_f+0x114>
    305c:	22 e8       	ldi	r18, 0x82	; 130
    305e:	3f ef       	ldi	r19, 0xFF	; 255
    3060:	26 1b       	sub	r18, r22
    3062:	37 0b       	sbc	r19, r23
    3064:	2a 31       	cpi	r18, 0x1A	; 26
    3066:	31 05       	cpc	r19, r1
    3068:	2c f0       	brlt	.+10     	; 0x3074 <__pack_f+0x76>
    306a:	20 e0       	ldi	r18, 0x00	; 0
    306c:	30 e0       	ldi	r19, 0x00	; 0
    306e:	40 e0       	ldi	r20, 0x00	; 0
    3070:	50 e0       	ldi	r21, 0x00	; 0
    3072:	2a c0       	rjmp	.+84     	; 0x30c8 <__pack_f+0xca>
    3074:	b8 01       	movw	r22, r16
    3076:	a7 01       	movw	r20, r14
    3078:	02 2e       	mov	r0, r18
    307a:	04 c0       	rjmp	.+8      	; 0x3084 <__pack_f+0x86>
    307c:	76 95       	lsr	r23
    307e:	67 95       	ror	r22
    3080:	57 95       	ror	r21
    3082:	47 95       	ror	r20
    3084:	0a 94       	dec	r0
    3086:	d2 f7       	brpl	.-12     	; 0x307c <__pack_f+0x7e>
    3088:	81 e0       	ldi	r24, 0x01	; 1
    308a:	90 e0       	ldi	r25, 0x00	; 0
    308c:	a0 e0       	ldi	r26, 0x00	; 0
    308e:	b0 e0       	ldi	r27, 0x00	; 0
    3090:	04 c0       	rjmp	.+8      	; 0x309a <__pack_f+0x9c>
    3092:	88 0f       	add	r24, r24
    3094:	99 1f       	adc	r25, r25
    3096:	aa 1f       	adc	r26, r26
    3098:	bb 1f       	adc	r27, r27
    309a:	2a 95       	dec	r18
    309c:	d2 f7       	brpl	.-12     	; 0x3092 <__pack_f+0x94>
    309e:	01 97       	sbiw	r24, 0x01	; 1
    30a0:	a1 09       	sbc	r26, r1
    30a2:	b1 09       	sbc	r27, r1
    30a4:	8e 21       	and	r24, r14
    30a6:	9f 21       	and	r25, r15
    30a8:	a0 23       	and	r26, r16
    30aa:	b1 23       	and	r27, r17
    30ac:	00 97       	sbiw	r24, 0x00	; 0
    30ae:	a1 05       	cpc	r26, r1
    30b0:	b1 05       	cpc	r27, r1
    30b2:	21 f0       	breq	.+8      	; 0x30bc <__pack_f+0xbe>
    30b4:	81 e0       	ldi	r24, 0x01	; 1
    30b6:	90 e0       	ldi	r25, 0x00	; 0
    30b8:	a0 e0       	ldi	r26, 0x00	; 0
    30ba:	b0 e0       	ldi	r27, 0x00	; 0
    30bc:	9a 01       	movw	r18, r20
    30be:	ab 01       	movw	r20, r22
    30c0:	28 2b       	or	r18, r24
    30c2:	39 2b       	or	r19, r25
    30c4:	4a 2b       	or	r20, r26
    30c6:	5b 2b       	or	r21, r27
    30c8:	da 01       	movw	r26, r20
    30ca:	c9 01       	movw	r24, r18
    30cc:	8f 77       	andi	r24, 0x7F	; 127
    30ce:	90 70       	andi	r25, 0x00	; 0
    30d0:	a0 70       	andi	r26, 0x00	; 0
    30d2:	b0 70       	andi	r27, 0x00	; 0
    30d4:	80 34       	cpi	r24, 0x40	; 64
    30d6:	91 05       	cpc	r25, r1
    30d8:	a1 05       	cpc	r26, r1
    30da:	b1 05       	cpc	r27, r1
    30dc:	39 f4       	brne	.+14     	; 0x30ec <__pack_f+0xee>
    30de:	27 ff       	sbrs	r18, 7
    30e0:	09 c0       	rjmp	.+18     	; 0x30f4 <__pack_f+0xf6>
    30e2:	20 5c       	subi	r18, 0xC0	; 192
    30e4:	3f 4f       	sbci	r19, 0xFF	; 255
    30e6:	4f 4f       	sbci	r20, 0xFF	; 255
    30e8:	5f 4f       	sbci	r21, 0xFF	; 255
    30ea:	04 c0       	rjmp	.+8      	; 0x30f4 <__pack_f+0xf6>
    30ec:	21 5c       	subi	r18, 0xC1	; 193
    30ee:	3f 4f       	sbci	r19, 0xFF	; 255
    30f0:	4f 4f       	sbci	r20, 0xFF	; 255
    30f2:	5f 4f       	sbci	r21, 0xFF	; 255
    30f4:	e0 e0       	ldi	r30, 0x00	; 0
    30f6:	f0 e0       	ldi	r31, 0x00	; 0
    30f8:	20 30       	cpi	r18, 0x00	; 0
    30fa:	a0 e0       	ldi	r26, 0x00	; 0
    30fc:	3a 07       	cpc	r19, r26
    30fe:	a0 e0       	ldi	r26, 0x00	; 0
    3100:	4a 07       	cpc	r20, r26
    3102:	a0 e4       	ldi	r26, 0x40	; 64
    3104:	5a 07       	cpc	r21, r26
    3106:	10 f0       	brcs	.+4      	; 0x310c <__pack_f+0x10e>
    3108:	e1 e0       	ldi	r30, 0x01	; 1
    310a:	f0 e0       	ldi	r31, 0x00	; 0
    310c:	79 01       	movw	r14, r18
    310e:	8a 01       	movw	r16, r20
    3110:	27 c0       	rjmp	.+78     	; 0x3160 <__pack_f+0x162>
    3112:	60 38       	cpi	r22, 0x80	; 128
    3114:	71 05       	cpc	r23, r1
    3116:	64 f5       	brge	.+88     	; 0x3170 <__pack_f+0x172>
    3118:	fb 01       	movw	r30, r22
    311a:	e1 58       	subi	r30, 0x81	; 129
    311c:	ff 4f       	sbci	r31, 0xFF	; 255
    311e:	d8 01       	movw	r26, r16
    3120:	c7 01       	movw	r24, r14
    3122:	8f 77       	andi	r24, 0x7F	; 127
    3124:	90 70       	andi	r25, 0x00	; 0
    3126:	a0 70       	andi	r26, 0x00	; 0
    3128:	b0 70       	andi	r27, 0x00	; 0
    312a:	80 34       	cpi	r24, 0x40	; 64
    312c:	91 05       	cpc	r25, r1
    312e:	a1 05       	cpc	r26, r1
    3130:	b1 05       	cpc	r27, r1
    3132:	39 f4       	brne	.+14     	; 0x3142 <__pack_f+0x144>
    3134:	e7 fe       	sbrs	r14, 7
    3136:	0d c0       	rjmp	.+26     	; 0x3152 <__pack_f+0x154>
    3138:	80 e4       	ldi	r24, 0x40	; 64
    313a:	90 e0       	ldi	r25, 0x00	; 0
    313c:	a0 e0       	ldi	r26, 0x00	; 0
    313e:	b0 e0       	ldi	r27, 0x00	; 0
    3140:	04 c0       	rjmp	.+8      	; 0x314a <__pack_f+0x14c>
    3142:	8f e3       	ldi	r24, 0x3F	; 63
    3144:	90 e0       	ldi	r25, 0x00	; 0
    3146:	a0 e0       	ldi	r26, 0x00	; 0
    3148:	b0 e0       	ldi	r27, 0x00	; 0
    314a:	e8 0e       	add	r14, r24
    314c:	f9 1e       	adc	r15, r25
    314e:	0a 1f       	adc	r16, r26
    3150:	1b 1f       	adc	r17, r27
    3152:	17 ff       	sbrs	r17, 7
    3154:	05 c0       	rjmp	.+10     	; 0x3160 <__pack_f+0x162>
    3156:	16 95       	lsr	r17
    3158:	07 95       	ror	r16
    315a:	f7 94       	ror	r15
    315c:	e7 94       	ror	r14
    315e:	31 96       	adiw	r30, 0x01	; 1
    3160:	87 e0       	ldi	r24, 0x07	; 7
    3162:	16 95       	lsr	r17
    3164:	07 95       	ror	r16
    3166:	f7 94       	ror	r15
    3168:	e7 94       	ror	r14
    316a:	8a 95       	dec	r24
    316c:	d1 f7       	brne	.-12     	; 0x3162 <__pack_f+0x164>
    316e:	05 c0       	rjmp	.+10     	; 0x317a <__pack_f+0x17c>
    3170:	ee 24       	eor	r14, r14
    3172:	ff 24       	eor	r15, r15
    3174:	87 01       	movw	r16, r14
    3176:	ef ef       	ldi	r30, 0xFF	; 255
    3178:	f0 e0       	ldi	r31, 0x00	; 0
    317a:	6e 2f       	mov	r22, r30
    317c:	67 95       	ror	r22
    317e:	66 27       	eor	r22, r22
    3180:	67 95       	ror	r22
    3182:	90 2f       	mov	r25, r16
    3184:	9f 77       	andi	r25, 0x7F	; 127
    3186:	d7 94       	ror	r13
    3188:	dd 24       	eor	r13, r13
    318a:	d7 94       	ror	r13
    318c:	8e 2f       	mov	r24, r30
    318e:	86 95       	lsr	r24
    3190:	49 2f       	mov	r20, r25
    3192:	46 2b       	or	r20, r22
    3194:	58 2f       	mov	r21, r24
    3196:	5d 29       	or	r21, r13
    3198:	b7 01       	movw	r22, r14
    319a:	ca 01       	movw	r24, r20
    319c:	1f 91       	pop	r17
    319e:	0f 91       	pop	r16
    31a0:	ff 90       	pop	r15
    31a2:	ef 90       	pop	r14
    31a4:	df 90       	pop	r13
    31a6:	08 95       	ret

000031a8 <__unpack_f>:
    31a8:	fc 01       	movw	r30, r24
    31aa:	db 01       	movw	r26, r22
    31ac:	40 81       	ld	r20, Z
    31ae:	51 81       	ldd	r21, Z+1	; 0x01
    31b0:	22 81       	ldd	r18, Z+2	; 0x02
    31b2:	62 2f       	mov	r22, r18
    31b4:	6f 77       	andi	r22, 0x7F	; 127
    31b6:	70 e0       	ldi	r23, 0x00	; 0
    31b8:	22 1f       	adc	r18, r18
    31ba:	22 27       	eor	r18, r18
    31bc:	22 1f       	adc	r18, r18
    31be:	93 81       	ldd	r25, Z+3	; 0x03
    31c0:	89 2f       	mov	r24, r25
    31c2:	88 0f       	add	r24, r24
    31c4:	82 2b       	or	r24, r18
    31c6:	28 2f       	mov	r18, r24
    31c8:	30 e0       	ldi	r19, 0x00	; 0
    31ca:	99 1f       	adc	r25, r25
    31cc:	99 27       	eor	r25, r25
    31ce:	99 1f       	adc	r25, r25
    31d0:	11 96       	adiw	r26, 0x01	; 1
    31d2:	9c 93       	st	X, r25
    31d4:	11 97       	sbiw	r26, 0x01	; 1
    31d6:	21 15       	cp	r18, r1
    31d8:	31 05       	cpc	r19, r1
    31da:	a9 f5       	brne	.+106    	; 0x3246 <__unpack_f+0x9e>
    31dc:	41 15       	cp	r20, r1
    31de:	51 05       	cpc	r21, r1
